(lp0
(ibiiots
Biot
p1
(dp2
S'BodyMatX'
p3
(lp4
(lp5
F-4.176710502739218
aF-6.6693020600419795
aF4.611808947071481
aF0.10693831458747548
aF7.995267620376392
aa(lp6
F7.997358300296808
aF-0.4916144500443838
aF-7.967036310614223
aF6.874115064327453
aF-3.759365560266768
aa(lp7
F-3.8206477975575863
aF7.160916510086356
aF3.355227363542744
aF-6.981053378914928
aF-4.235902060109629
aasS'symmetry'
p8
I3
sS'angleMove'
p9
F36.11212957737191
sS'angleRot'
p10
F7.201432046140931
sS'speed'
p11
F3.0
sS'energy'
p12
I860
sS'BodyMatY'
p13
(lp14
(lp15
F6.823129001880875
aF-4.418190809813425
aF-6.536911980110443
aF7.999285230373598
aF0.27512847646295663
aa(lp16
F0.20557289868499817
aF7.984880414414956
aF-0.725487715509035
aF-4.092253912257446
aF-7.06166910753259
aa(lp17
F-7.028701900565877
aF-3.5666896046015335
aF7.262399695619486
aF-3.9070313181161564
aF6.786540631069633
aasS'angleSeg'
p18
(lp19
F0.6983550442842595
aF5.374952916702669
aF3.7748364129389826
aF1.2610209484822261
aF2.7840517453565177
asS'color'
p20
(lp21
(I0
I255
I0
tp22
a(I255
I0
I0
tp23
ag23
ag22
ag23
asS'segSize'
p24
I8
sS'y'
p25
F50.03627295441026
sS'x'
p26
F452.85986621166956
sS'colorOut'
p27
g23
sS'root'
p28
I44
sS'size'
p29
F11.10944266017303
sba(ibiiots
Biot
p30
(dp31
g3
(lp32
(lp33
F7.547450316305797
aF9.91543248532868
aF-0.07546450412657853
aF7.514848484674655
aF-10.442419992052459
aa(lp34
F10.703876331985375
aF9.082416107098904
aF9.488323008718199
aF-3.1992480360790783
aF-2.2267319893968063
aa(lp35
F3.1564260156795934
aF-0.8330163782297634
aF9.563787512844783
aF-10.714096520753731
aF8.215688002655657
aa(lp36
F-7.547450316305803
aF-9.91543248532868
aF0.07546450412657987
aF-7.514848484674652
aF10.442419992052457
aa(lp37
F-10.703876331985375
aF-9.082416107098906
aF-9.488323008718194
aF3.199248036079077
aF2.2267319893968076
aa(lp38
F-3.156426015679576
aF0.833016378229762
aF-9.563787512844774
aF10.714096520753733
aF-8.215688002655657
aasg8
I6
sg9
F-30.821891912099147
sg10
F10.265946500482286
sg11
F3.0
sg12
I66
sg13
(lp39
(lp40
F8.00224929147396
aF4.762793154115423
aF10.999741138254889
aF-8.032873225215436
aF3.457725366419827
aa(lp41
F-2.535159061984733
aF-6.205619844746403
aF5.56522474678506
aF-10.524486305926963
aF10.772263673313839
aa(lp42
F-10.537408353458693
aF-10.96841299886182
aF-5.434516391469824
aF-2.4916130807115286
aF7.31453830689401
aa(lp43
F-8.002249291473957
aF-4.762793154115424
aF-10.999741138254889
aF8.03287322521544
aF-3.457725366419835
aa(lp44
F2.5351590619847317
aF6.205619844746402
aF-5.56522474678507
aF10.524486305926963
aF-10.772263673313839
aa(lp45
F10.537408353458698
aF10.96841299886182
aF5.43451639146984
aF2.4916130807115207
aF-7.314538306894011
aasg18
(lp46
F5.252477218386874
aF5.619317689109455
aF4.4894583434160245
aF0.6026340385953953
aF3.245282411027628
asg20
(lp47
(I0
I0
I255
tp48
ag22
ag48
ag23
ag22
asg24
I11
sg25
F100.22115505937263
sg26
F954.7196263817046
sg27
g23
sg28
I56
sg29
F29.455320307593492
sba(ibiiots
Biot
p49
(dp50
g3
(lp51
(lp52
F-7.994141863654933
aF6.205762121027486
aF3.5068329545662182
aF-3.885909856547909
aF3.948439475137878
aa(lp53
F-5.223582824114634
aF7.816395783489707
aF7.808170379910459
aF-7.890041666768754
aF7.901573934790633
aa(lp54
F1.4804406236550993
aF3.5411239955673897
aF6.229796251532991
aF-5.952811174393696
aF5.9046620588116125
aa(lp55
F7.069662086327309
aF-3.4006863867826693
aF-0.03974151893328784
aF0.4670075475183795
aF-0.5385807806081501
aa(lp56
F7.33528380316973
aF-7.781710558525028
aF-6.279353115063553
aF6.53516006093124
aF-6.576261307184217
aa(lp57
F2.0772872037044365
aF-6.3029479617309
aF-7.790483740090704
aF7.682203755491876
aF-7.661882938166938
aa(lp58
F-4.7449490290870076
aF-0.07793699304598627
aF-3.435221211922124
aF3.0443913337688575
aF-2.9779504427808132
aasg8
I7
sg9
F-25.68993238068748
sg10
F7.689939863582196
sg11
F3.0
sg12
I54
sg13
(lp59
(lp60
F-0.3060978009715776
aF5.048615304934655
aF7.190418807605602
aF-6.9928323722783325
aF6.957716989873397
aa(lp61
F6.059222927043912
aF-1.7041000427921864
aF1.7414003899990809
aF-1.3218330063411745
aF1.2510512991229719
aa(lp62
F7.861825205372586
aF-7.173593300990574
aF-5.018928039371105
aF5.344533573850346
aF-5.397681536662811
aa(lp63
F3.74431275204759
aF-7.241224488907317
aF-7.999901287620546
aF7.986357364315778
aF-7.981850082703854
aa(lp64
F-3.1927435736300236
aF-1.85606594261629
aF-4.956785698044818
aF4.6142911674502285
aF-4.555522716399483
aa(lp65
F-7.725598868264246
aF4.926748115310168
aF1.8188906221602104
aF-2.2324303928916835
aF2.301206171082107
aa(lp66
F-6.440920641598239
aF7.999620355061542
aF7.2249052052715745
aF-7.3980863341051295
aF7.425079875687638
aasg18
(lp67
F5.43326285673579
aF1.6470010663836052
aF1.2129121044095714
aF4.407946197197604
aF1.2753179504169025
asg20
(lp68
g23
ag48
ag22
a(I255
I255
I255
tp69
ag22
asg24
I8
sg25
F398.8046737437981
sg26
F615.9514184369755
sg27
g22
sg28
I41
sg29
F12.056037925354172
sba(ibiiots
Biot
p70
(dp71
g3
(lp72
(lp73
F-9.401344148087723
aF-10.9995517945973
aF-5.206506940365011
aF6.931512344331555
aF9.849920943253506
aa(lp74
F-2.609516451971115
aF-7.707642573103946
aF-10.53328189393724
aF10.940944231019591
aF10.427535777277406
aa(lp75
F5.7109305904744385
aF0.09929913378944802
aF-9.689803170339992
aF8.541319372344022
aF4.896841575102871
aa(lp76
F10.685991946791468
aF7.848072754840878
aF-3.170169166283384
aF1.1383054659093694
aF-3.5023560089744845
aa(lp77
F9.401344148087723
aF10.9995517945973
aF5.20650694036501
aF-6.931512344331554
aF-9.849920943253505
aa(lp78
F2.6095164519711163
aF7.707642573103947
aF10.533281893937241
aF-10.940944231019591
aF-10.4275357772774
aa(lp79
F-5.7109305904744385
aF-0.09929913378944666
aF9.689803170339998
aF-8.541319372344024
aF-4.89684157510289
aa(lp80
F-10.685991946791466
aF-7.848072754840883
aF3.1701691662833946
aF-1.1383054659093705
aF3.502356008974483
aasg8
I8
sg9
F-6.147422695588066
sg10
F10.83354305857191
sg11
F3.0
sg12
I1536
sg13
(lp81
(lp82
F5.710930590474439
aF0.09929913378944868
aF-9.689803170339992
aF8.541319372344022
aF4.89684157510287
aa(lp83
F10.685991946791468
aF7.84807275484087
aF-3.170169166283393
aF1.1383054659093685
aF-3.502356008974485
aa(lp84
F9.401344148087723
aF10.9995517945973
aF5.206506940365011
aF-6.931512344331554
aF-9.849920943253505
aa(lp85
F2.6095164519711154
aF7.70764257310394
aF10.533281893937241
aF-10.940944231019591
aF-10.427535777277406
aa(lp86
F-5.7109305904744385
aF-0.09929913378943755
aF9.689803170339992
aF-8.541319372344022
aF-4.896841575102872
aa(lp87
F-10.685991946791466
aF-7.84807275484087
aF3.1701691662833844
aF-1.13830546590937
aF3.5023560089745023
aa(lp88
F-9.401344148087723
aF-10.9995517945973
aF-5.206506940365001
aF6.931512344331552
aF9.849920943253498
aa(lp89
F-2.6095164519711167
aF-7.707642573103934
aF-10.533281893937238
aF10.940944231019591
aF10.427535777277406
aasg18
(lp90
F2.9038118966781976
aF2.366953238403185
aF1.2801841387518837
aF4.61045250959809
aF5.038157359815265
asg20
(lp91
g23
ag22
ag23
ag22
ag69
asg24
I11
sg25
F210.1462878251432
sg26
F514.870470320005
sg27
g23
sg28
I55
sg29
F25.899617227641397
sba(ibiiots
Biot
p92
(dp93
g3
(lp94
(lp95
F7.999889945653723
aF4.7640920215191
aF6.65170619468344
aF-7.767473678181037
aF4.772121090399478
aa(lp96
F-4.036285625976667
aF3.1837037507616777
aF-7.175022296624521
aF5.541978225039363
aF-7.946649113321224
aa(lp97
F-3.963604319677048
aF-7.947795772280772
aF0.5233161019410782
aF2.22549545314168
aF3.1745280229217374
aasg8
I3
sg9
F-25.508292260124588
sg10
F10.985426867407911
sg11
F3.0
sg12
I1858
sg13
(lp98
(lp99
F-0.04196257175713957
aF6.426774246112746
aF-4.444637746724692
aF1.9147722211178921
aF-6.420814613315392
aa(lp100
F-6.90712663453727
aF-7.339211839658672
aF-3.5382276697438497
aF5.76944341797279
aF-0.9223707875637677
aa(lp101
F6.949089206294408
aF0.9124375935459311
aF7.982865416468525
aF-7.684215639090675
aF7.343185400879145
aasg18
(lp102
F5.352880112089645
aF4.414740653006804
aF5.93669479705705
aF2.447734873480097
aF6.2792789852366
asg20
(lp103
g22
ag48
ag23
ag22
ag69
asg24
I8
sg25
F579.2352094104399
sg26
F116.41473623721984
sg27
g23
sg28
I41
sg29
F19.51238636527849
sba(ibiiots
Biot
p104
(dp105
g3
(lp106
(lp107
F-2.2854459971207044
aF8.417226234626277
aF-6.76227791265622
aF-8.984005985364734
aF6.08259135549514
aa(lp108
F6.396013795205808
aF6.967730165634828
aF-8.524454820048843
aF-4.956467567432671
aF-2.703402904557835
aa(lp109
F8.681459792326514
aF-1.4494960689914498
aF-1.7621769073926317
aF4.027538417932061
aF-8.785994260052984
aa(lp110
F2.2854459971206977
aF-8.417226234626277
aF6.76227791265622
aF8.984005985364734
aF-6.08259135549514
aa(lp111
F-6.396013795205807
aF-6.96773016563483
aF8.524454820048849
aF4.956467567432677
aF2.7034029045578336
aa(lp112
F-8.68145979232651
aF1.4494960689914647
aF1.762176907392617
aF-4.027538417932075
aF8.785994260052988
aasg8
I6
sg9
F9.823217713502634
sg10
F6.781381912934189
sg11
F3.0
sg12
F1978.0
sg13
(lp113
(lp114
F8.70498343446126
aF3.185953941148419
aF-5.938989596892879
aF-0.536317494522262
aF-6.633406545814585
aa(lp115
F6.331746009714619
aF-5.696554778012974
aF2.8868096613642593
aF7.512218663816175
aF-8.58438190760571
aa(lp116
F-2.3732374247466446
aF-8.882508719161402
aF8.825799258257131
aF8.048536158338441
aF-1.9509753617911274
aa(lp117
F-8.704983434461262
aF-3.1859539411484197
aF5.938989596892879
aF0.5363174945222632
aF6.6334065458145846
aa(lp118
F-6.331746009714619
aF5.696554778012973
aF-2.8868096613642433
aF-7.51221866381617
aF8.584381907605712
aa(lp119
F2.3732374247466588
aF8.8825087191614
aF-8.825799258257135
aF-8.048536158338434
aF1.950975361791113
aasg18
(lp120
F1.4109533820068727
aF2.876660580470648
aF5.6594230411321025
aF0.03728090973836218
aF4.067187532398133
asg20
(lp121
g22
ag69
ag22
ag22
ag22
asg24
I9
sg25
F237.48248778370302
sg26
F175.68358409920532
sg27
g69
sg28
I49
sg29
F13.378831060736816
sba(ibiiots
Biot
p122
(dp123
g3
(lp124
(lp125
F4.491691649951474
aF-8.407376608861995
aF-2.4732478981476005
aF3.5419691182623567
aF-8.9106388944429
aa(lp126
F8.999994889907391
aF-6.985237138726402
aF-8.730773909258165
aF8.936236897601669
aF-5.550940672659812
aa(lp127
F4.508303239955923
aF1.4221394701356003
aF-6.257526011110583
aF5.394267779339317
aF3.3596982217830926
aa(lp128
F-4.491691649951473
aF8.407376608861995
aF2.473247898147599
aF-3.541969118262356
aF8.9106388944429
aa(lp129
F-8.999994889907391
aF6.985237138726392
aF8.730773909258165
aF-8.93623689760167
aF5.5509406726598005
aa(lp130
F-4.508303239955924
aF-1.4221394701355994
aF6.257526011110585
aF-5.394267779339318
aF-3.3596982217830766
aasg8
I6
sg9
F42.36754208893564
sg10
F6.904313258964103
sg11
F3.0
sg12
I318
sg13
(lp131
(lp132
F7.7990195615703
aF-3.2118559364890857
aF-8.653498993719737
aF8.273720732855066
aF-1.2651144188734011
aa(lp133
F0.009590705960744303
aF5.675073754213015
aF-2.1848539872075885
aF1.0694251305923663
aF7.08428243710053
aa(lp134
F-7.7894288556095646
aF8.886929690702095
aF6.468645006512142
aF-7.204295602262699
aF8.349396855973941
aa(lp135
F-7.799019561570301
aF3.211855936489087
aF8.653498993719737
aF-8.273720732855066
aF1.2651144188734023
aa(lp136
F-0.00959070596072942
aF-5.675073754213026
aF2.18485398720759
aF-1.0694251305923594
aF-7.08428243710054
aa(lp137
F7.789428855609564
aF-8.886929690702095
aF-6.4686450065121415
aF7.204295602262699
aF-8.349396855973946
aasg18
(lp138
F2.0673051896168437
aF5.892242828736506
aF4.9647519251117425
aF1.9492643949127846
aF6.116125669548127
asg20
(lp139
g22
ag23
ag48
ag22
ag22
asg24
I9
sg25
F495.6801135673638
sg26
F242.07813604109214
sg27
g22
sg28
I45
sg29
F12.120155856957906
sba(ibiiots
Biot
p140
(dp141
g3
(lp142
(lp143
F10.79798084947636
aF-10.229688495543954
aF10.197200130339679
aF0.41505310940269347
aF4.489675392979572
aa(lp144
F-7.2163256114212295
aF8.617001434864202
aF-8.671110684657245
aF-9.72702224445727
aF6.451834721697265
aa(lp145
F-3.5816552380551214
aF1.612687060679733
aF-1.5260894456824259
aF9.311969135054557
aF-10.94151011467683
aasg8
I3
sg9
F-2.0791766756803325
sg10
F6.861619553063576
sg11
F3.0
sg12
I1847
sg13
(lp146
(lp147
F-2.0984779184784803
aF4.043942789424162
aF-4.125179935687705
aF-10.992166798060115
aF10.042052323388567
aa(lp148
F-8.302086765985166
aF6.837198715230404
aF-6.768444392504305
aF5.136636862367579
aF-8.909199106760472
aa(lp149
F10.400564684463642
aF-10.881141504654563
aF10.893624328192004
aF5.855529935692525
aF-1.1328532166280874
aasg18
(lp150
F3.350209306872419
aF0.3931299470326668
aF3.5426765009413104
aF4.691317347839861
aF2.007894948846763
asg20
(lp151
g22
ag69
ag22
ag23
ag69
asg24
I11
sg25
F38.064053127846094
sg26
F43.25241936684499
sg27
g23
sg28
I56
sg29
F17.277241434322114
sba(ibiiots
Biot
p152
(dp153
g3
(lp154
(lp155
F9.16524092592463
aF-10.992368178177152
aF7.056607811586482
aF8.000613289434659
aF-10.91258188802047
aa(lp156
F8.617137838331681
aF-3.786462206348522
aF-5.844653486497096
aF-4.707375663385009
aF-4.688470017576779
aa(lp157
F-3.839556856092854
aF8.652205837536846
aF-10.668802318707263
aF-10.909931447220679
aF8.014948061923203
aa(lp158
F-10.990114477134753
aF9.133819491606538
aF-0.7490289657176818
aF-2.035332785928701
aF9.641980337910416
aa(lp159
F-2.952707431028704
aF-3.0071949446177246
aF10.205876959335557
aF9.652026607099728
aF-2.0558764942363688
aasg8
I5
sg9
F-3.3935343675547784
sg10
F12.43411372804332
sg11
F3.0
sg12
I430
sg13
(lp160
(lp161
F6.082627620507131
aF-0.4096850441477579
aF-8.438263221389615
aF-7.549184525027954
aF-1.3840363207833803
aa(lp162
F-6.837026800824493
aF10.327763744387955
aF-9.318799580567088
aF-9.941861715180439
aF9.950791370252096
aa(lp163
F-10.308142565410625
aF6.792594065958405
aF2.678928346250889
aF1.4047760735951142
aF7.533963602558316
aa(lp164
F0.46624433452118974
aF-6.129709739844822
aF10.974468351975684
aF10.810061075244844
aF-5.294545793866452
aa(lp165
F10.596297411206798
aF-10.580963026353773
aF4.10366610373013
aF5.276209091368434
aF-10.80617285816058
aasg18
(lp166
F3.3130279255323147
aF0.7201025416858001
aF4.773279427668528
aF4.655323054933403
aF0.6311994001381345
asg20
(lp167
g22
ag22
ag22
ag22
ag22
asg24
I11
sg25
F120.88974450273473
sg26
F1054.1176821420836
sg27
g22
sg28
I58
sg29
F16.775708633330115
sba(ibiiots
Biot
p168
(dp169
g3
(lp170
(lp171
F-4.79580389215424
aF5.550940077150733
aF4.6178264060957925
aF-7.2097001091216955
aF4.352652392409994
aa(lp172
F-8.993369993986887
aF-3.359698923638423
aF8.998962490039235
aF1.0604653959095545
aF-4.645756540257199
aa(lp173
F-4.19756610183264
aF-8.91063900078915
aF4.38113608394344
aF8.270165505031265
aF-8.998408932667203
aa(lp174
F4.795803892154238
aF-5.550940077150746
aF-4.6178264060957845
aF7.209700109121696
aF-4.352652392410009
aa(lp175
F8.993369993986887
aF3.3596989236384216
aF-8.998962490039235
aF-1.0604653959095534
aF4.645756540257199
aa(lp176
F4.197566101832641
aF8.91063900078915
aF-4.381136083943442
aF-8.270165505031265
aF8.998408932667203
aasg8
I6
sg9
F-30.164233591570536
sg10
F7.546040521568688
sg11
F3.0
sg12
F1441.0
sg13
(lp177
(lp178
F-7.6157905057845605
aF-7.0842829037159305
aF7.725003513472626
aF5.387042262367227
aF-7.877462608660707
aa(lp179
F0.34539274928158187
aF-8.34939657355565
aF-0.13665322120923534
aF8.937304579350442
aF-7.7082388500005266
aa(lp180
F7.961183255066142
aF-1.2651136698397267
aF-7.8616567346818655
aF3.5502623169832055
aF0.16922375866017952
aa(lp181
F7.6157905057845605
aF7.084282903715921
aF-7.725003513472632
aF-5.387042262367226
aF7.877462608660698
aa(lp182
F-0.34539274928158076
aF8.34939657355565
aF0.13665322120923423
aF-8.937304579350442
aF7.708238850000528
aa(lp183
F-7.961183255066142
aF1.2651136698397276
aF7.861656734681865
aF-3.5502623169832064
aF-0.16922375866017839
aasg18
(lp184
F4.606622613406778
aF3.380003388610967
aF1.4418278359349712
aF6.257136400977607
aF3.539842411542136
asg20
(lp185
g48
ag69
ag22
ag69
ag22
asg24
I9
sg25
F227.2159330933747
sg26
F1037.1443650537708
sg27
g69
sg28
I45
sg29
F14.719456134742002
sba(ibiiots
Biot
p186
(dp187
g3
(lp188
(lp189
F7.882828160607391
aF6.871715251870466
aF6.790476468844364
aF-7.142231671565548
aF7.891225701595507
aa(lp190
F5.981431329840714
aF1.081841839737296
aF0.9269664153715685
aF-7.270797898205842
aF3.892188969957715
aa(lp191
F-0.4241052912593769
aF-5.5226805432698765
aF-5.634568255544925
aF-1.9243050102489656
aF-3.0377454422441392
aa(lp192
F-6.510281977869812
aF-7.968511835042133
aF-7.953158105789998
aF4.87122879909405
aF-7.680195577721854
aa(lp193
F-7.69408354959369
aF-4.413891187008909
aF-4.282857687515449
aF7.9986279677603775
aF-6.539301795736101
aa(lp194
F-3.0840832777716094
aF2.464479551813743
aF2.612521923833676
aF5.102897134427235
aF-0.47418038411407093
aa(lp195
F3.8482946060463807
aF7.487046921899411
aF7.540619240800761
aF-1.6354193212613057
aF5.948008528262941
aasg8
I7
sg9
F-25.890512568750914
sg10
F7.309342030815616
sg11
F3.0
sg12
I909
sg13
(lp196
(lp197
F1.3641921383496844
aF-4.096282399592443
aF-4.229589734959052
aF-3.603959870709717
aF-1.314745955110149
aa(lp198
F-5.312483340811522
aF-7.926513624147367
aF-7.946114350094214
aF3.336989350214578
aF-6.989339383814432
aa(lp199
F-7.988750509430483
aF-5.787918418307944
aF-5.67905278841511
aF7.7651175282497
aF-7.400817699965657
aa(lp200
F-4.649325603635814
aF0.7090974085366969
aF0.8644513545057637
aF6.34595382798179
aF-2.2393293388739597
aa(lp201
F2.1911363106552213
aF6.672148423802118
aF6.757005995889735
aF0.14815746137637656
aF4.60841968838371
aa(lp202
F7.381627891987615
aF7.61093558892019
aF7.561397304565366
aF-6.16120449550689
aF7.985934695658451
aa(lp203
F7.013603112885297
aF2.818533020788749
aF2.6719022185075105
aF-7.831053801605836
aF5.349877993722037
aasg18
(lp204
F2.5391781520896513
aF3.2480922057247987
aF3.2676063668127227
aF5.38481256475814
aF2.875631769019263
asg20
(lp205
g22
ag48
ag22
ag48
ag23
asg24
I8
sg25
F38.666431012922956
sg26
F94.75322669023264
sg27
g23
sg28
I41
sg29
F25.26196001025377
sba(ibiiots
Biot
p206
(dp207
g3
(lp208
(lp209
F-1.634398356592087
aF7.649475825346551
aF-4.2188409406851335
aF3.632049705363536
aF7.988315281081595
aa(lp210
F3.781819583458407
aF4.35435362391641
aF-7.600949748660799
aF7.364093952931949
aF6.397233791776715
aa(lp211
F7.428482110165776
aF-0.9782190313942607
aF-7.426489694091261
aF7.650396797135636
aF1.8128155139654145
aa(lp212
F7.599275299144057
aF-5.853072130222004
aF-3.7770925754171456
aF4.356993955270011
aF-3.619839290030553
aa(lp213
F4.214283119115446
aF-7.989207729667996
aF1.639648137002763
aF-0.9750947808604903
aF-7.3587310601887275
aa(lp214
F-1.1426189688870443
aF-6.387104242248706
aF6.289179263459838
aF-5.850925832055004
aF-7.65439078409864
aa(lp215
F-5.964876942551961
aF-1.7964036951245541
aF7.995933516102275
aF-7.989043660633554
aF-4.368475991051034
aa(lp216
F-7.996102702573861
aF3.63485410575159
aF5.9613016116580395
aF-6.388999172071451
aF0.9614972684120041
aa(lp217
F-6.285863141278735
aF7.365323273642959
aF1.1373104306314306
aF-1.7994709650806255
aF5.8415752701332195
aasg8
I9
sg9
F19.55816303627159
sg10
F11.450607640184817
sg11
F3.0
sg12
I680
sg13
(lp218
(lp219
F7.8312669480722645
aF-2.3421186130165785
aF-6.797159783115222
aF7.127988140967172
aF0.43222560085940714
aa(lp220
F7.049669541061515
aF-6.7111552297563515
aF-2.495107796936505
aF3.1257191576325436
aF-4.80368606523679
aa(lp221
F2.969453407438316
aF-7.93996772831087
aF2.974432857463132
aF-2.3391085580572772
aF-7.791899634384821
aa(lp222
F-2.500202977323842
aF-5.453581083876764
aF7.052203320716773
aF-6.709441383136199
aF-7.134196767285796
aa(lp223
F-6.799986602335227
aF-0.41540324049427185
aF7.830169473697448
aF-7.9403520179107066
aF-3.138323945008495
aa(lp224
F-7.917980922680952
aF4.817146395808268
aF4.944312307294795
aF-5.455883696321931
aF2.326005529723826
aa(lp225
F-5.331063970748425
aF7.795699696893336
aF-0.255043537601542
aF-0.41854675783098944
aF6.701971166426389
aa(lp226
F-0.24968293872628974
aF7.126558470250616
aF-5.33506167676094
aF4.814632860278166
aF7.942010010245282
aa(lp227
F4.948527515242634
aF3.1228213325026077
aF-7.918745164757921
aF7.794992254379205
aF5.465894104661011
aasg18
(lp228
F3.1059093052969207
aF5.1795710768113175
aF0.7255496340234093
aF3.7829142007086167
aF4.82839947395787
asg20
(lp229
g22
ag48
ag22
ag48
ag23
asg24
I8
sg25
F540.2904349796077
sg26
F780.0611234009447
sg27
g23
sg28
I41
sg29
F14.801865751365963
sba(ibiiots
Biot
p230
(dp231
g3
(lp232
(lp233
F-4.190245200137147
aF5.7803161437196415
aF-6.583312835578653
aF4.926554983792101
aF-3.7111813056092666
aa(lp234
F-7.590399376878311
aF0.8729541442648054
aF-7.9647897087744655
aF-0.277593819165369
aF1.7125769141352365
aa(lp235
F-7.438921327285623
aF-4.442872801096179
aF-5.619452958457157
aF-5.351853389023709
aF6.335001362583546
aa(lp236
F-3.806689314254498
aF-7.679830185793149
aF-0.6447117156147458
aF-7.921921278932801
aF7.993208267781329
aa(lp237
F1.6067349355555205
aF-7.32330967475229
aF4.631697304136399
aF-6.785234160081206
aF5.911304189869572
aa(lp238
F6.268350052149369
aF-3.54013117737373
aF7.740883679700425
aF-2.473660568249747
aF1.0634351846896988
aa(lp239
F7.996934514391641
aF1.899514042073498
aF7.2280245511933945
aF2.995366295140695
aF-4.282026962172066
aa(lp240
F5.983664441322788
aF6.450355530487484
aF3.3330924046380592
aF7.062827979246578
aF-7.623881104004801
aa(lp241
F1.1705712751362582
aF7.983003978469905
aF-2.1214307212432706
aF7.825513957273463
aF-7.398436547273258
aasg8
I9
sg9
F-14.722845337190591
sg10
F10.950771605220128
sg11
F3.0
sg12
I1341
sg13
(lp242
(lp243
F-6.814825394881926
aF-5.530636968618903
aF-4.5453264029006055
aF-6.303098919711891
aF7.087110364379568
aa(lp244
F-2.527021428378743
aF-7.952229313972963
aF0.7497498882963342
aF-7.99518240389556
aF7.814542872949833
aa(lp245
F2.9432039491776827
aF-6.652885184134759
aF5.694009874217563
aF-5.946231184741763
aF4.885463922296901
aa(lp246
F7.036271488845539
aF-2.2405821380570656
aF7.973979358121583
aF-1.1149723092488462
aF-0.32957789348226063
aa(lp247
F7.836989399435564
aF3.220114191714249
aF6.522835279451384
aF4.237994501278535
aF-5.3904065500507885
aa(lp248
F4.970692871594362
aF7.174083303599596
aF2.019584080286734
aF7.607956584595258
aF-7.929004074154836
aa(lp249
F-0.2214460939636045
aF7.771219106675966
aF-3.4286529552209744
aF7.4180712289607404
aF-6.757532470897308
aa(lp250
F-5.309967971056817
aF4.732115122258706
aF-7.2725851677477165
aF3.757187902617024
aF-2.4241363228990505
aa(lp251
F-7.913896820772044
aF-0.5211981194648276
aF-7.713593954504298
aF-1.6617253998534858
aF3.0435401518579246
aasg18
(lp252
F1.2211841218798194
aF6.145617670678828
aF1.6364221472553766
aF0.006475541932144185
aF3.32910382536559
asg20
(lp253
g22
ag23
ag22
ag22
ag22
asg24
I8
sg25
F306.35877315290145
sg26
F723.022021030323
sg27
g22
sg28
I43
sg29
F23.193983554787824
sba(ibiiots
Biot
p254
(dp255
g3
(lp256
(lp257
F0.07326861486228917
aF-6.019898244767875
aF-8.485980652824994
aF-8.096472627348424
aF2.810628918073799
aa(lp258
F8.999701756729284
aF6.690353138859013
aF2.9980214075086096
aF-3.93028383130248
aF-8.549875150251454
aa(lp259
F-0.07326861486228808
aF6.019898244767876
aF8.485980652824994
aF8.096472627348424
aF-2.8106289180737964
aa(lp260
F-8.999701756729284
aF-6.690353138859013
aF-2.9980214075086087
aF3.930283831302481
aF8.549875150251454
aasg8
I4
sg9
F-53.67724458930371
sg10
F11.295741670682181
sg11
F3.0
sg12
I1204
sg13
(lp261
(lp262
F8.999701756729284
aF6.690353138859015
aF2.99802140750861
aF-3.9302838313024795
aF-8.549875150251452
aa(lp263
F-0.07326861486228863
aF6.019898244767875
aF8.485980652824994
aF8.096472627348424
aF-2.810628918073796
aa(lp264
F-8.999701756729284
aF-6.690353138859013
aF-2.998021407508609
aF3.9302838313024804
aF8.549875150251454
aa(lp265
F0.07326861486228751
aF-6.019898244767876
aF-8.485980652824994
aF-8.096472627348424
aF2.810628918073797
aasg18
(lp266
F3.474664683631276
aF2.733825775340048
aF2.235331049404586
aF1.4438021811194848
aF0.007326130041294741
asg20
(lp267
g22
ag22
ag22
ag23
ag48
asg24
I9
sg25
F259.59942810599296
sg26
F585.2645452482782
sg27
g23
sg28
I48
sg29
F26.93236000445876
sba(ibiiots
Biot
p268
(dp269
g3
(lp270
(lp271
F3.382423624499464
aF0.8642507291091148
aF-8.677804114870868
aF8.965974761149678
aF-8.043751212582356
aa(lp272
F7.952074617661447
aF-5.096299080999174
aF-8.181641162696884
aF7.37090157876803
aF-3.5668818146883976
aa(lp273
F8.800861519754587
aF-8.672233912052658
aF-3.857197381684016
aF2.3269016292346336
aF2.578971225773989
aa(lp274
F5.531627506073845
aF-8.190334114512618
aF2.2720719221926524
aF-3.805881453248668
aF7.518094967624205
aa(lp275
F-0.3259164948906602
aF-3.8760859593677166
aF7.3382135224087
aF-8.157850306096067
aF8.939418519804562
aa(lp276
F-6.030960545737468
aF2.251825894062354
aF8.970723460330793
aF-8.692670336314032
aF6.177888795998122
aa(lp277
F-8.914051130573306
aF7.326083385403498
aF6.405732192678208
aF-5.160093307901015
aF0.5256562449581561
aa(lp278
F-7.626158122770778
aF8.972385040366884
aF0.8434276402881891
aF0.7869487273280429
aF-5.372536705116166
aa(lp279
F-2.7699009740171254
aF6.420408017990295
aF-5.11352607864678
aF6.365768707079401
aF-8.75686002177211
aasg8
I9
sg9
F-2.8393544006137663
sg10
F10.149364673983502
sg11
F3.0
sg12
F1055.0
sg13
(lp280
(lp281
F8.340216449495054
aF-8.95840782043519
aF-2.3865698699032944
aF0.781854578823314
aF4.037086378823208
aa(lp282
F4.214796469005895
aF-7.418068190371869
aF3.7497663773712597
aF-5.164282129794513
aF8.263011201737852
aa(lp283
F-1.8827736215761546
aF-2.4067320113888564
aF8.131545262662563
aF-8.693993835278768
aF8.62258125021909
aa(lp284
F-7.099373009924697
aF3.7307408235698727
aF8.708483747494956
aF-8.155689202257392
aF4.947549702406597
aa(lp285
F-8.994096866187187
aF8.122558564614504
aF5.210625902858322
aF-3.8012469511106888
aF-1.0424953370520285
aa(lp286
F-6.680382840508321
aF8.713740881092935
aF-0.725341711382096
aF2.3318409946147867
aF-6.544745222258913
aa(lp287
F-1.2408434395703514
aF5.227666996865315
aF-6.321913877591662
aF7.3738346234340755
aF-8.984636081229805
aa(lp288
F4.779300397181295
aF-0.7044903742426346
aF-8.960392280229582
aF8.965529080905197
aF-7.220515864685813
aa(lp289
F8.563156462084468
aF-6.30700886970408
aF-7.406203551280459
aF6.362152840663972
aF-2.0778360279601813
aasg18
(lp290
F4.998187346951843
aF1.3751319206061032
aF2.773719482226856
aF6.096714586691253
aF3.507263574705719
asg20
(lp291
g69
ag22
ag22
ag48
ag69
asg24
I9
sg25
F546.2066616746947
sg26
F540.6884167902695
sg27
g69
sg28
I49
sg29
F9.00000000000002
sba(ibiiots
Biot
p292
(dp293
g3
(lp294
(lp295
F-5.1455127597810275
aF-8.998378961584304
aF-7.606166898779604
aF-8.842075693040595
aF6.076339366657306
aa(lp296
F-8.967502178528484
aF-4.351263662262319
aF-7.969577038840302
aF-2.9673277382437173
aF-2.7114889957503125
aa(lp297
F-3.8219894187474552
aF4.6471152993219835
aF-0.3634101400607015
aF5.874747954796882
aF-8.787828362407613
aa(lp298
F5.145512759781033
aF8.998378961584304
aF7.606166898779604
aF8.842075693040593
aF-6.076339366657295
aa(lp299
F8.967502178528484
aF4.351263662262333
aF7.969577038840305
aF2.967327738243718
aF2.711488995750311
aa(lp300
F3.8219894187474632
aF-4.6471152993219755
aF0.3634101400607026
aF-5.874747954796881
aF8.787828362407613
aasg8
I6
sg9
F25.786819760974772
sg10
F11.38214885958881
sg11
F3.0
sg12
I60
sg13
(lp301
(lp302
F-7.384016416485721
aF0.1708100222965858
aF-4.81105239089219
aF1.6785998446743307
aF-6.639133972229413
aa(lp303
F0.76413655722449
aF7.878229784759741
aF4.18160756432134
aF8.496762094695216
aF-8.581831239655378
aa(lp304
F8.148152973710207
aF7.707419762463152
aF8.992659955213533
aF6.818162250020885
aF-1.9426972674259735
aa(lp305
F7.384016416485718
aF-0.1708100222965927
aF4.811052390892191
aF-1.6785998446743373
aF6.6391339722294225
aa(lp306
F-0.7641365572244809
aF-7.878229784759733
aF-4.181607564321332
aF-8.496762094695216
aF8.58183123965538
aa(lp307
F-8.148152973710204
aF-7.707419762463156
aF-8.992659955213533
aF-6.818162250020886
aF1.9426972674259744
aasg18
(lp308
F0.847128971826925
aF1.8283001517080375
aF1.245331460017562
aF1.9969298420591453
aF5.780542679439413
asg20
(lp309
g22
ag48
ag23
ag23
ag22
asg24
I9
sg25
F247.44217562856116
sg26
F728.4970290545862
sg27
g23
sg28
I47
sg29
F32.29413786970024
sba(ibiiots
Biot
p310
(dp311
g3
(lp312
(lp313
F6.781645632261694
aF-8.811788678325334
aF8.46360339498085
aF-4.332085446511983
aF-7.683313448057836
aa(lp314
F-3.531628548025957
aF-4.464330000647517
aF5.526223418179902
aF6.163998800145592
aF-6.831747007632734
aa(lp315
F-8.964312110581176
aF6.052681000929328
aF-5.048209493120048
aF8.14164621161553
aF3.461061594800419
aa(lp316
F-2.0086210220755163
aF8.205092582282576
aF-8.646188467257971
aF-1.1321847169903747
aF8.97080071037631
aa(lp317
F7.722916048420954
aF-0.981654904239052
aF-0.29542885278273595
aF-8.841374848258763
aF2.0831981505138346
aasg8
I5
sg9
F21.774024189470214
sg10
F10.764390042449861
sg11
F3.0
sg12
F1687.0
sg13
(lp318
(lp319
F-5.916864247084421
aF-1.8309506515844323
aF3.0606237227840665
aF7.888791775938763
aF-4.686864032473484
aa(lp320
F-8.278139875525666
aF7.814714175535695
aF-7.103580416406929
aF6.557828816903022
aF5.858944685154588
aa(lp321
F0.8006924403837355
aF6.660709624431105
aF-7.45087786194168
aF-3.835830674689184
aF8.30789098610457
aa(lp322
F8.772995018217912
aF-3.698169238443725
aF2.498684651702823
aF-8.92850254895038
aF-0.7243856809130816
aa(lp323
F4.621316664008439
aF-8.94630390993864
aF8.995149903861718
aF-1.6822873692022235
aF-8.755585957872594
aasg18
(lp324
F0.0028884212956542914
aF2.222209876533441
aF5.221681000271314
aF3.495689218726517
aF1.8793348616185146
asg20
(lp325
g69
ag22
ag22
ag69
ag48
asg24
I9
sg25
F467.759829642354
sg26
F1169.7179710632574
sg27
g69
sg28
I49
sg29
F9.000000000000028
sba(ibiiots
Biot
p326
(dp327
g3
(lp328
(lp329
F-7.487685075419189
aF-6.9839068533678965
aF7.973877306410316
aF-7.15442890880332
aF-2.051182556196068
aa(lp330
F-7.286397628047596
aF-2.17928787972626
aF6.095154377658667
aF-7.590164961085077
aF-6.918158295346394
aa(lp331
F-2.8168372710088767
aF3.901928377543714
aF0.6459726792323127
aF-3.5796853198122514
aF-7.732570731726736
aa(lp332
F3.302788156388835
aF7.697447910657027
aF-5.181611053765845
aF2.5277254327787206
aF-4.0173481054708065
aa(lp333
F7.487685075419189
aF6.983906853367901
aF-7.973877306410315
aF7.154428908803319
aF2.0511825561960704
aa(lp334
F7.286397628047597
aF2.1792878797262607
aF-6.09515437765867
aF7.59016496108508
aF6.918158295346394
aa(lp335
F2.8168372710088776
aF-3.9019283775437192
aF-0.6459726792323173
aF3.5796853198122522
aF7.732570731726736
aa(lp336
F-3.302788156388834
aF-7.697447910657026
aF5.181611053765842
aF-2.5277254327787264
aF4.017348105470807
aasg8
I8
sg9
F41.536448650496084
sg10
F9.84098518182034
sg11
F3.0
sg12
I1534
sg13
(lp337
(lp338
F-2.8168372710088763
aF3.9019283775437144
aF0.6459726792323139
aF-3.579685319812251
aF-7.732570731726737
aa(lp339
F3.3027881563888353
aF7.697447910657027
aF-5.181611053765845
aF2.527725432778721
aF-4.0173481054708065
aa(lp340
F7.487685075419189
aF6.983906853367897
aF-7.973877306410316
aF7.15442890880332
aF2.051182556196071
aa(lp341
F7.286397628047596
aF2.1792878797262603
aF-6.095154377658667
aF7.590164961085077
aF6.918158295346394
aa(lp342
F2.816837271008877
aF-3.9019283775437072
aF-0.6459726792323167
aF3.579685319812252
aF7.732570731726736
aa(lp343
F-3.3027881563888344
aF-7.697447910657027
aF5.181611053765842
aF-2.5277254327787135
aF4.017348105470807
aa(lp344
F-7.487685075419188
aF-6.983906853367894
aF7.973877306410315
aF-7.154428908803319
aF-2.05118255619607
aa(lp345
F-7.286397628047597
aF-2.179287879726261
aF6.09515437765867
aF-7.590164961085075
aF-6.918158295346393
aasg18
(lp346
F2.990664981589941
aF3.859984066114495
aF0.1280565568537775
aF2.886559938409338
aF2.0389810610079233
asg20
(lp347
g22
ag23
ag22
ag22
ag23
asg24
I8
sg25
F78.1462571504496
sg26
F213.3926822524851
sg27
g23
sg28
I43
sg29
F18.395480299251627
sba(ibiiots
Biot
p348
(dp349
g3
(lp350
(lp351
F-0.587752351887928
aF7.683872819275501
aF-7.365100507776131
aF6.547771900148771
aF8.851522764079911
aa(lp352
F-8.722862100192911
aF6.831047633006265
aF-7.195330536860592
aF7.8958432157748035
aF1.1869039963094157
aa(lp353
F-4.803272905209578
aF-3.46205320330811
aF2.9181416757062566
aF-1.6678724229596715
aF-8.117975752977614
aa(lp354
F5.754276187531932
aF-8.970714183511129
aF8.998841276434632
aF-8.92664506206252
aF-6.204088931497101
aa(lp355
F8.359611169758482
aF-2.082153065462533
aF2.64344809249585
aF-3.849097630901396
aF4.283637924085386
aasg8
I5
sg9
F8.078701754663289
sg10
F9.421721817425752
sg11
F3.0
sg12
I1700
sg13
(lp356
(lp357
F-8.980787669956918
aF4.685946915747037
aF-5.172552030705519
aF6.174680813096508
aF-1.6280493717867164
aa(lp358
F-2.2162303086588544
aF-5.859760083450473
aF5.4062203493125836
aF-4.319219826763048
aF-8.921393327476641
aa(lp359
F7.611082012308075
aF-8.30747781323935
aF8.513779957252025
aF-8.844105470918505
aF-3.885674931600372
aa(lp360
F6.920137683428196
aF0.7254564340828988
aF-0.14441496299319673
aF-1.1467379543534997
aF6.519914150514188
aa(lp361
F-3.334201717120492
aF8.75583454685988
aF-8.603033312865879
aF8.135382438938521
aF7.915203480349538
aasg18
(lp362
F2.2643031622717453
aF0.08052979344966282
aF3.1574754279057897
aF6.155258656750855
aF0.8100502617670269
asg20
(lp363
g22
ag22
ag22
ag22
ag22
asg24
I9
sg25
F578.0289823911031
sg26
F1002.4709262221478
sg27
g22
sg28
I45
sg29
F15.910383804833744
sba(ibiiots
Biot
p364
(dp365
g3
(lp366
(lp367
F-9.86934018633358
aF-0.9134050378068864
aF-0.3758748155336401
aF8.870598776755916
aF-7.904370002458313
aa(lp368
F3.539287273000303
aF-8.16734922187837
aF8.842071598561741
aF-0.4372551156913279
aF9.256965972030674
aa(lp369
F6.33005291333327
aF9.08075425968525
aF-8.466196783028098
aF-8.43334366106459
aF-1.3525959695723555
aasg8
I3
sg9
F-49.87332642351623
sg10
F9.030643684817607
sg11
F3.0
sg12
I1456
sg13
(lp370
(lp371
F-1.6112492936913945
aF-9.958197188091276
aF9.992933409317184
aF4.616543874135332
aF6.12543344296852
aa(lp372
F9.352723966801227
aF5.770130560731081
aF-4.670949565763672
aF-9.990435824517455
aF3.782668501556303
aa(lp373
F-7.741474673109833
aF4.188066627360193
aF-5.321983843553518
aF5.373891950382116
aF-9.908101944524825
aasg18
(lp374
F3.998994926135519
aF2.681496962085572
aF5.694025284460697
aF0.5393733232325294
aF4.820099533679647
asg20
(lp375
g69
ag23
ag22
ag22
ag23
asg24
I10
sg25
F238.21831514937995
sg26
F682.3028470131777
sg27
g23
sg28
I51
sg29
F15.815172666258158
sba(ibiiots
Biot
p376
(dp377
g3
(lp378
(lp379
F4.1010640565469005
aF5.299298800237293
aF3.238130483674952
aF2.3527707120331596
aF-6.7168965441817585
aa(lp380
F-1.2736224492491401
aF7.911798722396629
aF7.182775468063309
aF-3.112559707000856
aF-7.938669695123242
aa(lp381
F-6.0523668563046735
aF6.8222800924982385
aF7.766519983287478
aF-7.12148884688124
aF-5.445851067230622
aa(lp382
F-7.999141546730206
aF2.540540786122382
aF4.7162234830764405
aF-7.79819420877345
aF-0.4048582010879135
aa(lp383
F-6.203029006884968
aF-2.9299457890458944
aF-0.5408463998516242
aF-4.82603783310575
aF4.82557231684155
aa(lp384
F-1.5044502557299262
aF-7.029478166799299
aF-5.544848241450901
aF0.4042752801082131
aF7.798063917458387
aa(lp385
F3.8980774901833017
aF-7.839839586359677
aF-7.954353966751381
aF5.445423496740286
aF7.121754745269668
aa(lp386
F7.476651456134108
aF-4.981852933350727
aF-6.6419290682117
aF7.938597540106607
aF3.1130973782816906
aa(lp387
F7.556817112034593
aF0.2071980743010589
aF-2.22167174183658
aF6.717213566773023
aF-2.352212850227762
aasg8
I9
sg9
F3.1201685559088235
sg10
F10.646450697936414
sg11
F3.0
sg12
F1411.0
sg13
(lp388
(lp389
F-6.868862613569956
aF5.993115402343225
aF7.31536130144609
aF-7.64620624732285
aF-4.3454920106656685
aa(lp390
F-7.897967197752129
aF1.18466914211651
aF3.5224617209258513
aF-7.369665668831575
aF0.9886978667580197
aa(lp391
F-5.231525153978015
aF-4.178096975837472
aF-1.9186368466169608
aF-3.6447766191834186
aF5.860265024172805
aa(lp392
F-0.11719434873190498
aF-7.5858850844215056
aF-6.461983910354337
aF1.7855439177607015
aF7.989749047186142
aa(lp393
F5.051972994755978
aF-7.444153254283004
aF-7.9816968854854125
aF6.380388611474379
aF6.380740694851381
aa(lp394
F7.857266027571814
aF-3.819219383917605
aF-5.766685181217963
aF7.989778563758412
aF1.7861128573619183
aa(lp395
F6.986056962301857
aF1.5927696820782766
aF-0.8533773910917484
aF5.860662329562146
aF-3.6442570365204707
aa(lp396
F2.8459942029961556
aF6.2594841121664935
aF4.459235164559553
aF0.9892770573572007
aF-7.369438561609403
aa(lp397
F-2.6257408735938044
aF7.997316359755061
aF7.685322027834931
aF-4.34500194457499
aF-7.646377881534719
aasg18
(lp398
F0.43597336245254525
aF4.839848965785735
aF4.532537865049728
aF0.6757120485342626
aF1.9707906050963766
asg20
(lp399
g69
ag22
ag23
ag69
ag22
asg24
I8
sg25
F28.319454214240256
sg26
F936.6103226293598
sg27
g69
sg28
I40
sg29
F15.039742767917728
sba(ibiiots
Biot
p400
(dp401
g3
(lp402
(lp403
F0.6126275228948193
aF-2.962128519395477
aF-6.32011972051577
aF2.8064672219659466
aF-4.79683370731793
aa(lp404
F-9.20518010853136
aF7.693321059000072
aF4.6368667803333095
aF-7.8077818758687885
aF6.174376727680425
aa(lp405
F-9.817807631426186
aF10.655449578395553
aF10.956986500849084
aF-10.61424909783474
aF10.971210434998358
aa(lp406
F-0.6126275228948157
aF2.9621285193954785
aF6.320119720515771
aF-2.806467221965948
aF4.796833707317932
aa(lp407
F9.20518010853136
aF-7.693321059000063
aF-4.6368667803333175
aF7.8077818758687885
aF-6.174376727680415
aa(lp408
F9.817807631426186
aF-10.655449578395547
aF-10.956986500849084
aF10.61424909783474
aF-10.971210434998358
aasg8
I6
sg9
F-25.17293301985542
sg10
F9.348459213892943
sg11
F3.0
sg12
F490.0
sg13
(lp409
(lp410
F-10.982927092455443
aF10.593667666799066
aF9.003115389594186
aF-10.635964541687358
aF9.899009363786789
aa(lp411
F-6.022014544112174
aF7.862112380470405
aF9.974941927722758
aF-7.748454179954532
aF9.103684530160212
aa(lp412
F4.9609125483432726
aF-2.7315552863286556
aF0.971826538128578
aF2.8875103617328204
aF-0.7953248336265711
aa(lp413
F10.982927092455443
aF-10.593667666799066
aF-9.003115389594184
aF10.635964541687356
aF-9.899009363786789
aa(lp414
F6.022014544112175
aF-7.862112380470412
aF-9.974941927722755
aF7.748454179954532
aF-9.10368453016022
aa(lp415
F-4.960912548343271
aF2.7315552863286734
aF-0.9718265381285793
aF-2.887510361732819
aF0.7953248336265892
aasg18
(lp416
F2.216491197034959
aF5.141156175483954
aF4.801744114076906
aF2.0142277898787055
aF4.9625727186897395
asg20
(lp417
g48
ag22
ag22
ag69
ag69
asg24
I11
sg25
F223.09157661204046
sg26
F951.6094187593438
sg27
g69
sg28
I58
sg29
F13.254466912997072
sba(ibiiots
Biot
p418
(dp419
g3
(lp420
(lp421
F-6.629413602518468
aF7.504467817995884
aF-3.3868002485108626
aF-2.446395017708342
aF-0.4324708726825765
aa(lp422
F2.2100587779732566
aF4.9551615576871
aF-7.939579279526728
aF-7.999954265882207
aF7.463685828019457
aa(lp423
F7.995305044440998
aF-4.442009555598383
aF-1.5201296026110553
aF-2.497848627051576
aF5.045282395749504
aa(lp424
F2.7313114899147695
aF-7.700474441398717
aF7.000087517808225
aF6.456198915612072
aF-4.345529824604765
aa(lp425
F-6.307261709810555
aF-0.31714537868588527
aF5.8464216128404285
aF6.487998995030051
aF-7.730967526481618
aasg8
I5
sg9
F57.50593333148822
sg10
F11.363054972705793
sg11
F3.0
sg12
F320.0
sg13
(lp426
(lp427
F4.477820372317665
aF2.771815789092791
aF-7.247729580819552
aF-7.616767780189429
aF7.988302006326574
aa(lp428
F7.688669598695431
aF-6.280634835525781
aF0.9813668346290487
aF-0.027050763262562012
aF2.8798253177270166
aa(lp429
F0.27403876794412596
aF-6.65346158837433
aF7.8542476400522006
aF7.600049489071539
aF-6.208472078308812
aa(lp430
F-7.519304325870816
aF2.1685694310685824
aF3.8728251629818615
aF4.724139663690046
aF-6.716872080326562
aa(lp431
F-4.9212244130864065
aF7.9937112037387354
aF-5.460710056843553
aF-4.680370609309592
aF2.0572168345817827
aasg18
(lp432
F2.422470989789934
aF4.616193832480475
aF0.6947575641395295
aF0.5683955943920546
aF3.345125110792896
asg20
(lp433
g23
ag22
ag22
ag69
ag23
asg24
I8
sg25
F520.097876496092
sg26
F342.34573863702997
sg27
g69
sg28
I40
sg29
F9.08676365755169
sba(ibiiots
Biot
p434
(dp435
g3
(lp436
(lp437
F1.5340661284322143
aF-3.259833196824311
aF5.03805889767067
aF1.7693429418214952
aF0.5834367122986011
aa(lp438
F6.875592431110211
aF-7.889452120395305
aF8.653123193583458
aF-4.316797444561224
aF6.219858369965704
aa(lp439
F8.999952621573549
aF-8.827508715339814
aF8.219294978466438
aF-8.383060330774153
aF8.945939170299981
aa(lp440
F6.913134957070789
aF-5.635075875545523
aF3.939567295636417
aF-8.526796120880142
aF7.4861156098117005
aa(lp441
F1.591584615217709
aF0.19407159330889817
aF-2.1835277082353755
aF-4.680749241243233
aF2.5234553565850097
aa(lp442
F-4.474685856588426
aF5.932410806788578
aF-7.284925830216458
aF1.355472229104651
aF-3.619957703070166
aa(lp443
F-8.447201085502993
aF8.89490907236983
aF-8.977626193307083
aF6.757453179058644
aF-8.069552322110301
aa(lp444
F-8.467177046327917
aF7.695380527086407
aF-6.469595485348091
aF8.99754668580445
aF-8.743313726550706
aa(lp445
F-4.525266764985129
aF2.8950979085512327
aF-0.9343691482499735
aF7.027588101669508
aF-5.325981467229807
aasg8
I9
sg9
F-24.913676356812946
sg10
F9.6092359147952
sg11
F3.0
sg12
F1254.0
sg13
(lp446
(lp447
F8.86829414902308
aF-8.388890721000138
aF7.457745138016007
aF-8.824365447681009
aF8.981069067919599
aa(lp448
F5.80742875300765
aF-4.330882732190982
aF2.474562384881014
aF-7.897167835536338
aF6.504872163045756
aa(lp449
F0.029202901078699026
aF1.7535934194104512
aF-3.6664956098373263
aF-3.274797625900069
aF0.9849732794814663
aa(lp450
F-5.762687312819068
aF7.017543721049757
aF-8.091959560153027
aF2.879886788216399
aF-4.995805548310862
aa(lp451
F-8.858152087913274
aF8.997907324298831
aF-8.73110570016011
aF7.687040167749933
aF-8.638991437854445
aa(lp452
F-7.808789053678394
aF6.768050089907587
aF-5.284870447631148
aF8.89734202085803
aF-8.239897221930804
aa(lp453
F-3.105606836204005
aF1.371346999950381
aF0.6342144221370104
aF5.944478659464615
aF-3.9852635196087416
aa(lp454
F3.0507233349056144
aF-4.667024592107838
aF6.256543315279102
aF0.21012766778639902
aF2.1341192748086946
aa(lp455
F7.779586152599702
aF-8.52164350931804
aF8.95136605746847
aF-5.622544394957959
aF7.254923942449336
aasg18
(lp456
F5.324317545103891
aF2.382067771029333
aF5.747154889439191
aF1.81355417328427
aF5.217901184706602
asg20
(lp457
g22
ag69
ag22
ag69
ag69
asg24
I9
sg25
F112.10087594443297
sg26
F913.9930053597155
sg27
g69
sg28
I47
sg29
F9.87944725808721
sba(ibiiots
Biot
p458
(dp459
g3
(lp460
(lp461
F-7.431653501373332
aF9.081027312250109
aF0.08523728292843916
aF3.6344300455217797
aF9.31313911586461
aa(lp462
F-6.69107810711589
aF-4.1874745317634545
aF9.999636723681464
aF9.31616435257604
aF-3.642175147978548
aa(lp463
F7.431653501373328
aF-9.081027312250107
aF-0.08523728292843794
aF-3.634430045521779
aF-9.31313911586461
aa(lp464
F6.69107810711589
aF4.187474531763457
aF-9.999636723681464
aF-9.316164352576035
aF3.6421751479785467
aasg8
I4
sg9
F30.661897862258684
sg10
F9.252897161359604
sg11
F3.0
sg12
I1191
sg13
(lp465
(lp466
F-6.691078107115885
aF-4.1874745317634545
aF9.999636723681464
aF9.31616435257604
aF-3.6421751479785462
aa(lp467
F7.431653501373328
aF-9.081027312250109
aF-0.08523728292843855
aF-3.6344300455217793
aF-9.31313911586461
aa(lp468
F6.69107810711589
aF4.187474531763458
aF-9.999636723681464
aF-9.31616435257604
aF3.6421751479785476
aa(lp469
F-7.431653501373328
aF9.081027312250107
aF0.08523728292845507
aF3.634430045521795
aF9.31313911586461
aasg18
(lp470
F3.2055642073333255
aF1.229044745351482
aF5.517891977330339
aF5.881329119129044
aF1.1697716354263046
asg20
(lp471
g22
ag22
ag22
ag22
ag48
asg24
I10
sg25
F412.3742428998168
sg26
F319.4242829232573
sg27
g48
sg28
I51
sg29
F15.445359979510112
sba(ibiiots
Biot
p472
(dp473
g3
(lp474
(lp475
F-10.96248303190238
aF10.908700937321871
aF9.817963689720747
aF9.414030428022722
aF8.118847691477228
aa(lp476
F-4.2508919097184865
aF2.0258949569897204
aF-1.6838968355858988
aF-2.5024104317622746
aF-4.549766029827499
aa(lp477
F8.335287349194406
aF-9.656628996265217
aF-10.858669167661226
aF-10.960605128654107
aF-10.930757738770291
aa(lp478
F9.402382797517644
aF-7.9940198934294076
aF-5.027129782619269
aF-4.271616075012378
aF-2.205813775523487
aa(lp479
F-2.52429520509118
aF4.716052995383031
aF7.751732096145646
aF8.320601207406037
aF9.567489852644044
aasg8
I5
sg9
F-57.2861683233566
sg10
F8.913585029922027
sg11
F3.0
sg12
I378
sg13
(lp480
(lp481
F-0.9077256057049439
aF-1.4142997773007406
aF-4.960603691822699
aF-5.689993945538284
aF-7.421880635162147
aa(lp482
F10.14543828387369
aF-10.811833777081649
aF-10.870349186990444
aF-10.711579810233752
aF-10.014970248274716
aa(lp483
F7.17795129590329
aF-5.2677809776498705
aF-1.7576415753171826
aF-0.9301264503933242
aF1.2322886254093983
aa(lp484
F-5.709220413414102
aF7.556166087603878
aF9.784066953404517
aF10.136730050055386
aF10.776566502727611
aa(lp485
F-10.706443560657931
aF9.937748444428383
aF7.804527500725809
aF7.194970156109976
aF5.427995755299853
aasg18
(lp486
F4.1952694969405595
aF1.2652209032467225
aF1.604136371251793
aF1.6799517899962266
aF1.876871718814777
asg20
(lp487
g22
ag69
ag23
ag22
ag23
asg24
I11
sg25
F561.1770286632044
sg26
F830.3424159293085
sg27
g23
sg28
I55
sg29
F34.07440752852525
sba(ibiiots
Biot
p488
(dp489
g3
(lp490
(lp491
F-1.7180338537175386
aF5.76603723418071
aF-0.8154319046601431
aF4.125336437810112
aF7.073593348827261
aa(lp492
F7.871205489894217
aF-4.790321471527244
aF8.272321418835778
aF8.882157360434647
aF7.478067258233321
aa(lp493
F6.582706378906932
aF-8.72661872062296
aF5.928007707364411
aF1.364138704363545
aF-2.4518936130813316
aa(lp494
F-3.8028692097689887
aF-0.6030255046788523
aF-4.608611170113246
aF-8.039073275768732
aF-8.993420847916369
aa(lp495
F-8.933008805314621
aF8.353928462648366
aF-8.776286051426808
aF-6.332559226839578
aF-3.106346146062884
aasg8
I5
sg9
F73.7317122491143
sg10
F7.058365415649364
sg11
F3.0
sg12
I1130
sg13
(lp496
(lp497
F8.834498269708385
aF-6.91034113586599
aF8.962983365423721
aF7.9988498720051115
aF5.564555430169308
aa(lp498
F4.363957393909699
aF-7.619240132678918
aF3.545236006737887
aF-1.4516475551856984
aF-5.0078448539605125
aa(lp499
F-6.137424274815778
aF2.2013917654231596
aF-6.771907015119755
aF-8.896017400795557
aF-8.659573760303157
aa(lp500
F-8.157094199124526
aF8.979775066264567
aF-7.730504710735736
aF-4.046393563016453
aF-0.34406605799357526
aa(lp501
F1.0960628103222176
aF3.3484144368571673
aF1.9941923536939057
aF6.3952086469926
aF8.446929242087936
aasg18
(lp502
F1.1986484523229515
aF3.836940945469441
aF1.2999919256150632
aF1.8668810127594
aF2.2949588073982192
asg20
(lp503
g22
ag22
ag48
ag22
ag23
asg24
I9
sg25
F544.2695992836782
sg26
F642.307066648702
sg27
g23
sg28
I48
sg29
F28.391854794573767
sba(ibiiots
Biot
p504
(dp505
g3
(lp506
(lp507
F2.4142867283877307
aF6.136405344295234
aF-0.4951150200922628
aF-7.405078013151845
aF6.255203376127286
aa(lp508
F-7.196927952426919
aF-3.7698085217507042
aF8.402075189534774
aF-9.522643362543375
aF-3.629196595329494
aa(lp509
F-9.611214680814648
aF-9.906213866045931
aF8.897190209627045
aF-2.1175653493915196
aF-9.884399971456773
aa(lp510
F-2.414286728387732
aF-6.136405344295235
aF0.49511502009227293
aF7.405078013151845
aF-6.255203376127286
aa(lp511
F7.196927952426919
aF3.7698085217507034
aF-8.402075189534772
aF9.52264336254337
aF3.629196595329493
aa(lp512
F9.61121468081465
aF9.906213866045931
aF-8.897190209627045
aF2.117565349391521
aF9.884399971456773
aasg8
I6
sg9
F-7.461621718240455
sg10
F7.265242617092
sg11
F3.0
sg12
I237
sg13
(lp513
(lp514
F-9.704185673879643
aF-7.895855207037734
aF9.987735534988852
aF-6.720477633259046
aF-7.802078615554051
aa(lp515
F-6.942926475743213
aF-9.262210519597131
aF5.4226499526895715
aF3.0527468597655787
aF-9.31820433734144
aa(lp516
F2.7612591981364183
aF-1.3663553125594066
aF-4.565085582299269
aF9.773224493024621
aF-1.5161257217873967
aa(lp517
F9.70418567387964
aF7.895855207037733
aF-9.98773553498885
aF6.720477633259047
aF7.80207861555405
aa(lp518
F6.942926475743213
aF9.262210519597133
aF-5.422649952689572
aF-3.0527468597655942
aF9.31820433734144
aa(lp519
F-2.761259198136417
aF1.3663553125594077
aF4.565085582299268
aF-9.773224493024621
aF1.516125721787398
aasg18
(lp520
F4.081597538312117
aF3.664772277315674
aF1.134310937074228
aF5.159260990818345
aF3.649637067119848
asg20
(lp521
g69
ag48
ag22
ag69
ag22
asg24
I10
sg25
F380.76741353703795
sg26
F351.96973519158666
sg27
g22
sg28
I50
sg29
F23.187083121227808
sba(ibiiots
Biot
p522
(dp523
g3
(lp524
(lp525
F-5.814054329615007
aF8.017988427878432
aF-3.262505673102243
aF6.721919681536873
aF-0.01502817714132109
aa(lp526
F5.941287262450421
aF-3.205762206872241
aF7.982008976749938
aF-4.964215361199298
aF-9.515198385455973
aa(lp527
F9.485971794736184
aF-9.999258431575349
aF8.195658519240475
aF-9.789973502232376
aF-5.865687834768595
aa(lp528
F-0.07863427698061659
aF-2.97411936613529
aF-2.9168134516716906
aF-1.0863210121411557
aF5.890003936172205
aa(lp529
F-9.534570450590978
aF8.161151576704446
aF-9.998348371216478
aF9.118590194035955
aF9.505910461193684
aasg8
I5
sg9
F-3.197708445074391
sg10
F11.332159475373341
sg11
F3.0
sg12
I1300
sg13
(lp530
(lp531
F8.136139886474727
aF-5.975940224802082
aF9.45283326484582
aF-7.403769026311343
aF-9.999988707688214
aa(lp532
F8.04369974980695
aF-9.472227228745604
aF6.023913403683972
aF-8.68081596669535
aF-3.0758738084349355
aa(lp533
F-3.164860045795006
aF0.12178184827507291
aF-5.729850036083059
aF2.038729708810841
aF8.098994148969842
aa(lp534
F-9.999690827744812
aF9.54749255019238
aF-9.565155476423113
aF9.940820220614626
aF8.081327467184828
aa(lp535
F-3.015288762741859
aF5.778893055080231
aF-0.18174115602361926
aF4.1050350635812265
aF-3.1044591000315163
aasg18
(lp536
F2.8096508098261683
aF5.641399175187812
aF3.097771450216077
aF5.834533050773045
aF0.2900159964966226
asg20
(lp537
g22
ag22
ag22
ag69
ag22
asg24
I10
sg25
F290.3718790869236
sg26
F767.184560444799
sg27
g22
sg28
I53
sg29
F11.66117950858577
sba(ibiiots
Biot
p538
(dp539
g3
(lp540
(lp541
F5.104912848690699
aF-0.3965228227505476
aF-10.776188897440784
aF10.087928970555915
aF1.1628984650847496
aa(lp542
F-4.435077340862205
aF-8.841784807129514
aF-8.444860230610225
aF9.718538965484175
aF9.277007677984596
aa(lp543
F-10.635363833655369
aF-10.62900249219894
aF0.24562043362504676
aF2.030890897336305
aF10.405340892892385
aa(lp544
F-8.827004437820449
aF-4.412364508504691
aF8.7511439015969
aF-7.186059439130338
aF3.6982401851795106
aa(lp545
F-0.3717306622302981
aF5.126873945926745
aF10.666877520862784
aF-10.991760449033219
aF-5.7937108123252266
aa(lp546
F8.36346388394288
aF10.805471749905829
aF4.550234802271333
aF-6.520441649762433
aF-10.922879397986426
aa(lp547
F10.800799541934738
aF8.347328934751113
aF-4.99282753030505
aF2.8609027045495927
aF-7.8268970108295735
aasg8
I7
sg9
F18.692384798194407
sg10
F10.773536536066391
sg11
F3.0
sg12
F1545.0
sg13
(lp548
(lp549
F-9.743708986175266
aF-10.992850842754027
aF-2.2076577739029157
aF4.3856229985053075
aF10.938357607973124
aa(lp550
F-10.06628476552152
aF-6.543916367467856
aF7.04871163301903
aF-5.152669247716738
aF5.910763786738128
aa(lp551
F-2.8087428016419356
aF2.832720604088713
aF10.997257412763686
aF-10.810896455110303
aF-3.5677557235188493
aa(lp552
F6.563839779785771
aF10.076261183796705
aF6.664644057528009
aF-8.328298129707278
aF-10.359682405012396
aa(lp553
F10.993717129104143
aF9.732171573835796
aF-2.6865822069894376
aF0.42567855368699836
aF-9.350556936522326
aa(lp554
F7.145101249246443
aF2.059558268655456
aF-10.014757273354096
aF8.859110603894917
aF-1.300271378229826
aa(lp555
F-2.0839216047976334
aF-7.163944420154785
aF-9.801615849064275
aF10.621451676447096
aF7.729145048572132
aasg18
(lp556
F0.36453703499142154
aF0.8831914582729311
aF2.2158639553219786
aF5.149433862886081
aF4.094644733262448
asg20
(lp557
g23
ag22
ag69
ag22
ag22
asg24
I11
sg25
F348.68004965664295
sg26
F749.110600742665
sg27
g69
sg28
I59
sg29
F23.733000327626105
sba(ibiiots
Biot
p558
(dp559
g3
(lp560
(lp561
F6.506026881777408
aF-3.2166435847064614
aF-4.645636122225969
aF7.898136560810448
aF-7.9987596820305376
aa(lp562
F-4.655278102711989
aF7.324834745505646
aF-6.512915247404135
aF1.2725717531005103
aF0.14086713286899338
aa(lp563
F-6.506026881777408
aF3.2166435847064556
aF4.645636122225968
aF-7.898136560810449
aF7.9987596820305376
aa(lp564
F4.655278102711988
aF-7.324834745505643
aF6.512915247404131
aF-1.2725717531005076
aF-0.14086713286899238
aasg8
I4
sg9
F43.086492269259324
sg10
F9.550272568553632
sg11
F3.0
sg12
I599
sg13
(lp565
(lp566
F-4.65527810271199
aF7.324834745505647
aF-6.512915247404135
aF1.2725717531005099
aF0.14086713286899386
aa(lp567
F-6.506026881777408
aF3.216643584706462
aF4.645636122225969
aF-7.898136560810448
aF7.9987596820305376
aa(lp568
F4.655278102711989
aF-7.324834745505648
aF6.512915247404136
aF-1.2725717531005072
aF-0.14086713286899288
aa(lp569
F6.506026881777409
aF-3.2166435847064694
aF-4.645636122225973
aF7.898136560810449
aF-7.9987596820305376
aasg18
(lp570
F1.1206787814307801
aF4.798204810116541
aF2.6899938851543315
aF0.33985368296284296
aF3.6588057134966907
asg20
(lp571
g22
ag22
ag48
ag22
ag22
asg24
I8
sg25
F340.3951989281684
sg26
F635.1387322730028
sg27
g22
sg28
I42
sg29
F8.00000000000003
sba(ibiiots
Biot
p572
(dp573
g3
(lp574
(lp575
F7.075357606690914
aF-1.2122790386533209
aF-3.7773767970910317
aF1.4207889001089702
aF2.3081307005067666
aa(lp576
F5.737212498667161
aF7.14597422250357
aF5.539625515020972
aF-7.048452721740959
aF-6.571650882570801
aa(lp577
F-3.529565281833897
aF5.6287339908911385
aF7.201053650320134
aF-5.776972250241588
aF-6.369634308133766
aa(lp578
F-7.9186038083521115
aF-3.6672253025010044
aF-1.0891296043116283
aF3.4780875190266936
aF2.635000384236712
aa(lp579
F-1.3644010151720671
aF-7.895203872240375
aF-7.874172763938445
aF7.9265485528468815
aF7.9981541059610874
aasg8
I5
sg9
F3.40246948744574
sg10
F11.434160781015468
sg11
F3.0
sg12
F968.0
sg13
(lp580
(lp581
F3.733539170470965
aF7.907615287331685
aF7.052051086939055
aF-7.872824074074509
aF-7.659799779979771
aa(lp582
F-5.575337904121804
aF3.5965333880438957
aF5.771702448440029
aF-3.7840869743416934
aF-4.5621710487010905
aa(lp583
F-7.179287493983843
aF-5.684835411846742
aF-3.484942800852128
aF5.53412970754559
aF4.840223009391744
aa(lp584
F1.1382942178327322
aF-7.10995489301419
aF-7.925515548215901
aF7.204367231755384
aF7.5535933816344905
aa(lp585
F7.882792009801948
aF1.29064162948535
aF-1.4132951863110554
aF-1.0815858908847713
aF-0.17184556234537274
aasg18
(lp586
F4.413353638769189
aF3.175983625705689
aF2.8363512926155674
aF0.00796614027260985
aF6.177020261969607
asg20
(lp587
g22
ag69
ag69
ag22
ag22
asg24
I8
sg25
F366.4143869867448
sg26
F74.55688058686482
sg27
g69
sg28
I40
sg29
F18.809202147228156
sba(ibiiots
Biot
p588
(dp589
g3
(lp590
(lp591
F-0.01332219662444995
aF-3.6435240389206447
aF8.922302048981878
aF8.998712375923564
aF-8.255821754126377
aa(lp592
F-6.37337427413944
aF3.2427773781462625
aF5.474596485409814
aF6.470697129996728
aF-8.371658275512605
aa(lp593
F-8.999990139943327
aF8.22950378685176
aF-1.180053450795248
aF0.15223526332646425
aF-3.583490918656504
aa(lp594
F-6.354533842992542
aF8.395498488820236
aF-7.143444079849615
aF-6.255403955928992
aF3.303836817707748
aa(lp595
F0.013322196624456844
aF3.6435240389206385
aF-8.922302048981878
aF-8.998712375923564
aF8.255821754126378
aa(lp596
F6.373374274139439
aF-3.2427773781462617
aF-5.4745964854098155
aF-6.470697129996729
aF8.371658275512605
aa(lp597
F8.999990139943327
aF-8.229503786851758
aF1.180053450795247
aF-0.15223526332646534
aF3.5834909186564974
aa(lp598
F6.354533842992543
aF-8.395498488820236
aF7.143444079849614
aF6.255403955928991
aF-3.3038368177077397
aasg8
I8
sg9
F-22.83826953958939
sg10
F11.292845477952424
sg11
F3.0
sg12
I1036
sg13
(lp599
(lp600
F-8.999990139943327
aF8.229503786851756
aF-1.1800534507952487
aF0.1522352633264637
aF-3.5834909186565107
aa(lp601
F-6.354533842992542
aF8.395498488820236
aF-7.143444079849615
aF-6.255403955928992
aF3.303836817707756
aa(lp602
F0.013322196624457393
aF3.643524038920638
aF-8.922302048981878
aF-8.998712375923564
aF8.255821754126378
aa(lp603
F6.37337427413944
aF-3.242777378146262
aF-5.474596485409814
aF-6.470697129996729
aF8.371658275512608
aa(lp604
F8.999990139943327
aF-8.229503786851758
aF1.1800534507952474
aF-0.15223526332646478
aF3.5834909186565045
aa(lp605
F6.354533842992543
aF-8.395498488820236
aF7.143444079849615
aF6.255403955928992
aF-3.3038368177077553
aa(lp606
F-0.01332219662445629
aF-3.643524038920639
aF8.922302048981878
aF8.998712375923564
aF-8.255821754126382
aa(lp607
F-6.373374274139439
aF3.242777378146261
aF5.4745964854098155
aF6.470697129996729
aF-8.371658275512612
aasg18
(lp608
F0.32930742024768356
aF3.052620355678403
aF5.171711829695791
aF5.023300320043726
aF1.489107215951205
asg20
(lp609
g69
ag48
ag69
ag22
ag22
asg24
I9
sg25
F204.24628663094342
sg26
F375.3319339887259
sg27
g22
sg28
I48
sg29
F14.377078749000441
sba(ibiiots
Biot
p610
(dp611
g3
(lp612
(lp613
F-10.889478661781025
aF-3.4806269855016683
aF-4.302871105668641
aF10.466157117389477
aF10.613252921268128
aa(lp614
F-8.799854754692644
aF4.917349155744992
aF-10.200986513015305
aF5.006995285484347
aF9.549068835353172
aa(lp615
F-1.555395279218677
aF10.434808852480124
aF-10.123502370622619
aF-3.385196477919354
aF2.8911697337225886
aa(lp616
F6.600193655970503
aF9.839699044203229
aF-4.115807838235387
aF-9.794386055855544
aF-5.46033738680009
aa(lp617
F10.889478661781025
aF3.480626985501669
aF4.30287110566864
aF-10.466157117389477
aF-10.613252921268128
aa(lp618
F8.799854754692639
aF-4.917349155745
aF10.200986513015305
aF-5.006995285484348
aF-9.549068835353172
aa(lp619
F1.5553952792186783
aF-10.434808852480124
aF10.123502370622619
aF3.3851964779193526
aF-2.89116973372259
aa(lp620
F-6.600193655970495
aF-9.839699044203238
aF4.115807838235407
aF9.794386055855535
aF5.460337386800072
aasg8
I8
sg9
F2.951520220049892
sg10
F6.511245672810013
sg11
F3.0
sg12
F922.0
sg13
(lp621
(lp622
F-1.5553952792186763
aF10.434808852480124
aF-10.123502370622626
aF-3.3851964779193544
aF2.8911697337225877
aa(lp623
F6.600193655970505
aF9.839699044203233
aF-4.115807838235386
aF-9.794386055855544
aF-5.46033738680009
aa(lp624
F10.889478661781025
aF3.4806269855016687
aF4.302871105668658
aF-10.466157117389477
aF-10.613252921268128
aa(lp625
F8.799854754692644
aF-4.917349155745
aF10.200986513015305
aF-5.006995285484347
aF-9.549068835353172
aa(lp626
F1.5553952792186776
aF-10.434808852480124
aF10.123502370622628
aF3.3851964779193535
aF-2.891169733722589
aa(lp627
F-6.600193655970511
aF-9.839699044203229
aF4.115807838235387
aF9.794386055855544
aF5.46033738680009
aa(lp628
F-10.889478661781025
aF-3.48062698550167
aF-4.3028711056686575
aF10.466157117389477
aF10.613252921268128
aa(lp629
F-8.79985475469265
aF4.917349155744981
aF-10.200986513015296
aF5.006995285484366
aF9.549068835353182
aasg18
(lp630
F0.22516825951277758
aF1.615885771275826
aF5.481334946028427
aF3.821458203779374
aF3.2426780588823854
asg20
(lp631
g69
ag69
ag69
ag22
ag22
asg24
I11
sg25
F508.8654166021191
sg26
F886.0449760928782
sg27
g69
sg28
I58
sg29
F18.71437462893121
sba(ibiiots
Biot
p632
(dp633
g3
(lp634
(lp635
F-3.9778503786830535
aF9.890183424143176
aF-10.038481128376386
aF9.385463613385301
aF-10.993699994136831
aa(lp636
F-10.982849596997854
aF-1.523106996004798
aF-7.379584953666597
aF8.356471013616323
aF-3.043221634853496
aa(lp637
F-2.8099239655897015
aF-10.831515316176889
aF5.477646804143114
aF-4.220880500967128
aF9.112885588498349
aa(lp638
F9.246221080460527
aF-5.171137619057584
aF10.76495685699428
aF-10.96511862566569
aF8.675294664134565
aa(lp639
F8.524402860810085
aF7.635576507096095
aF1.1754624209055933
aF-2.5559355003688
aF-3.7512586236425842
aasg8
I5
sg9
F-15.082123281111834
sg10
F8.910811564219491
sg11
F3.0
sg12
F361.0
sg13
(lp640
(lp641
F-10.255569529032071
aF-4.815004863632391
aF-4.49765457046572
aF5.736991612493477
aF0.37223707353757146
aa(lp642
F0.6140152520288812
aF-10.894041723746115
aF8.157311193746231
aF-7.1532784231141315
aF10.570657599277332
aa(lp643
F10.63505182439675
aF-1.917883196502197
aF9.539150145010861
aF-10.157960808969264
aF6.1607886062531865
aa(lp644
F5.958808247564889
aF9.708724721855464
aF-2.261792180341031
aF0.8753133867817533
aF-6.763080843109769
aa(lp645
F-6.95230579495845
aF7.918205062025244
aF-10.937014587950351
aF10.698934232808167
aF-10.34060243595832
aasg18
(lp646
F3.079868951142332
aF1.5921346093730697
aF3.859433503796344
aF0.5904043935046307
aF4.314503611922786
asg20
(lp647
g22
ag48
ag69
ag22
ag69
asg24
I11
sg25
F210.99865818759662
sg26
F807.7177359626513
sg27
g69
sg28
I59
sg29
F19.998517013909854
sba(ibiiots
Biot
p648
(dp649
g3
(lp650
(lp651
F-8.532206744140503
aF-9.450477632623947
aF6.493609566391495
aF-8.610076166313839
aF8.682669720559865
aa(lp652
F-9.397386575656896
aF-3.336216822289024
aF9.994374060393628
aF-1.391961835840002
aF9.292200380017558
aa(lp653
F-3.18614264395198
aF5.290283301650437
aF5.969171038842287
aF6.874328147868235
aF2.904514626977726
aa(lp654
F5.424331684114333
aF9.933092197334219
aF-2.5509395238562926
aF9.964108825492563
aF-5.6703298814772864
aa(lp655
F9.950173617840973
aF7.096080070270453
aF-9.15014059540783
aF5.5507123267421985
aF-9.975300335529585
aa(lp656
F6.983331870780999
aF-1.0844250833609541
aF-8.859099169764471
aF-3.042483767941917
aF-6.7686661778841115
aa(lp657
F-1.2421012089869246
aF-8.448336030981176
aF-1.8969753765988093
aF-9.344627530007237
aF1.534911667335832
aasg8
I7
sg9
F6.1681768981651945
sg10
F8.69156045323207
sg11
F3.0
sg12
I1405
sg13
(lp658
(lp659
F-5.215500750191043
aF3.269322944475576
aF7.604803403064992
aF5.085920605974339
aF4.960972336515581
aa(lp660
F3.4189363181644006
aF9.427070452408623
aF-0.33539102690882727
aF9.90264824415999
aF-3.695268880284836
aa(lp661
F9.478844605350943
aF8.48604163248558
aF-8.023029172890157
aF7.262479777281757
aF-9.568897260482654
aa(lp662
F8.40098957151557
aF1.1548503795981746
aF-9.669162711715417
aF-0.8464840894790655
aF-8.23695083360498
aa(lp663
F0.9970180413721155
aF-7.045966763781283
aF-4.034219513644449
aF-8.318028171733504
aF-0.7024124258463449
aa(lp664
F-7.157728409386204
aF-9.941027222504603
aF4.638573261281798
aF-9.525927383819905
aF7.361056865176881
aa(lp665
F-9.922559376825781
aF-5.3502914226820595
aF9.818425760812056
aF-3.560608982383611
aF9.881500198526352
aasg18
(lp666
F3.9512418490881474
aF4.832964186737107
aF0.49426336627641465
aF5.033457303254446
aF0.8392177920980104
asg20
(lp667
g22
ag22
ag22
ag23
ag22
asg24
I10
sg25
F427.7741976595842
sg26
F486.9087199826754
sg27
g23
sg28
I54
sg29
F22.790812690621898
sba(ibiiots
Biot
p668
(dp669
g3
(lp670
(lp671
F1.3642855425547005
aF-7.609052573811458
aF2.958384781754541
aF8.425040095093728
aF-7.815960590701418
aa(lp672
F8.386300331892407
aF0.3580137065033229
aF-5.881919591174926
aF1.471347935648867
aF-0.0436472308424495
aa(lp673
F7.022014789337712
aF7.967066280314789
aF-8.840304372929463
aF-6.953692159444852
aF7.772313359858969
aa(lp674
F-1.3642855425546994
aF7.609052573811458
aF-2.9583847817545417
aF-8.425040095093728
aF7.815960590701419
aa(lp675
F-8.386300331892405
aF-0.35801370650332176
aF5.8819195911749125
aF-1.471347935648884
aF0.04364723084246659
aa(lp676
F-7.022014789337703
aF-7.967066280314796
aF8.840304372929461
aF6.953692159444861
aF-7.772313359858968
aasg8
I6
sg9
F-23.88756388890944
sg10
F7.6934334880213795
sg11
F3.0
sg12
F419.0
sg13
(lp677
(lp678
F8.895994883000789
aF4.80648717141461
aF-8.499879968745626
aF-3.1652329133988015
aF4.462147470064425
aa(lp679
F3.2664915036321913
aF8.992876413359395
aF-6.811976359541523
aF-8.878915206953033
aF8.999894161557666
aa(lp680
F-5.629503379368597
aF4.18638924194479
aF1.6879036092040922
aF-5.713682293554235
aF4.537746691493234
aa(lp681
F-8.895994883000789
aF-4.806487171414609
aF8.499879968745624
aF3.1652329133988
aF-4.462147470064424
aa(lp682
F-3.2664915036321993
aF-8.992876413359395
aF6.811976359541536
aF8.87891520695303
aF-8.999894161557666
aa(lp683
F5.629503379368607
aF-4.186389241944776
aF-1.6879036092041069
aF5.713682293554224
aF-4.5377466914932345
aasg18
(lp684
F0.907825734728014
aF6.031429374421307
aF3.562307738704338
aF2.685826689251258
aF5.9867898638151695
asg20
(lp685
g69
ag69
ag22
ag69
ag23
asg24
I9
sg25
F335.75153297052304
sg26
F360.634263766864
sg27
g69
sg28
I45
sg29
F15.058390675176732
sba(ibiiots
Biot
p686
(dp687
g3
(lp688
(lp689
F6.175792610476305
aF10.400791672370811
aF-9.181189144202174
aF6.406274569578526
aF-4.127735620776336
aa(lp690
F-9.10272407757075
aF-3.5809960329413895
aF-6.0585283607807074
aF-8.94201577605248
aF-10.196165879632119
aa(lp691
F-6.1757926104763055
aF-10.400791672370811
aF9.181189144202174
aF-6.406274569578528
aF4.127735620776334
aa(lp692
F9.102724077570748
aF3.580996032941388
aF6.058528360780709
aF8.942015776052479
aF10.196165879632119
aasg8
I4
sg9
F14.258707787383614
sg10
F7.075141344670594
sg11
F3.0
sg12
I1376
sg13
(lp693
(lp694
F-9.10272407757075
aF-3.58099603294139
aF-6.058528360780707
aF-8.94201577605248
aF-10.196165879632117
aa(lp695
F-6.1757926104763055
aF-10.400791672370811
aF9.181189144202174
aF-6.406274569578528
aF4.127735620776335
aa(lp696
F9.102724077570748
aF3.580996032941389
aF6.0585283607807074
aF8.94201577605248
aF10.196165879632119
aa(lp697
F6.175792610476307
aF10.400791672370811
aF-9.181189144202172
aF6.406274569578529
aF-4.127735620776334
aasg18
(lp698
F3.9194169027519545
aF3.276328457967416
aF5.503040094397205
aF3.893872680087787
aF4.9002016749961665
asg20
(lp699
g22
ag22
ag22
ag48
ag23
asg24
I11
sg25
F281.7141842913508
sg26
F860.673208886651
sg27
g23
sg28
I58
sg29
F39.096188910597085
sba(ibiiots
Biot
p700
(dp701
g3
(lp702
(lp703
F7.835758243137591
aF-7.975284098810168
aF-5.51410415128251
aF-2.779581348287392
aF4.1054221918802964
aa(lp704
F-2.521215394565783
aF4.531822770718563
aF-2.262508817166681
aF7.886362512135609
aF-7.999065564840618
aa(lp705
F-5.314542848571814
aF3.4434613280916104
aF7.776612968449184
aF-5.10678116384822
aF3.8936433729603244
aasg8
I3
sg9
F-16.784524436358332
sg10
F6.728561950804456
sg11
F3.0
sg12
I1956
sg13
(lp706
(lp707
F1.6127283575051605
aF0.6283657718762816
aF-5.796089665352754
aF7.501594998948747
aF-6.866258706633241
aa(lp708
F-7.5923298752230535
aF6.592615746029548
aF7.67339910680026
aF-1.3436094399720988
aF-0.12227055811209968
aa(lp709
F5.979601517717898
aF-7.2209815179058285
aF-1.877309441447511
aF-6.157985558976654
aF6.988529264745347
aasg18
(lp710
F3.0883376392642794
aF0.22835373983831028
aF5.6225873584302954
aF1.3656755381168586
aF4.323232819502746
asg20
(lp711
g22
ag69
ag22
ag23
ag23
asg24
I8
sg25
F340.8544450406925
sg26
F72.69271363509331
sg27
g23
sg28
I43
sg29
F9.310998930478114
sba(ibiiots
Biot
p712
(dp713
g3
(lp714
(lp715
F8.71040786873008
aF-1.842091409950167
aF8.848093143446485
aF-4.541808629933316
aF0.161866399355551
aa(lp716
F8.128270522051777
aF-7.073739774102502
aF7.836438106798536
aF1.5151941771824808
aF5.908149628069565
aa(lp717
F3.742825062441041
aF-8.995506682091666
aF3.158026587671152
aF6.863220789287047
aF8.889943984040745
aa(lp718
F-2.3939298407529708
aF-6.708176039609408
aF-2.998060669383576
aF8.999870117881505
aF7.712034749157238
aa(lp719
F-7.410538365892079
aF-1.2820152751216631
aF-7.751322019500859
aF6.925380195904289
aF2.925578745423978
aa(lp720
F-8.959673630670258
aF4.744014684608224
aF-8.877653650345245
aF1.6104279132359018
aF-3.229788067479168
aa(lp721
F-6.316478027977102
aF8.550267449559575
aF-5.8500324740629015
aF-4.458061487948192
aF-7.873901148512788
aa(lp722
F-0.7177321561597072
aF8.355755049224165
aF-0.08511608729766941
aF-8.440574373086761
aF-8.833728373493546
aa(lp723
F5.216848568229221
aF4.251491997483446
aF5.719627062674083
aF-8.473648702522942
aF-5.660155916561566
aasg8
I9
sg9
F12.191195108293853
sg10
F10.845845023598272
sg11
F3.0
sg12
I1462
sg13
(lp724
(lp725
F2.264684251803129
aF-8.809466455886406
aF1.6465866891528298
aF7.769940435361345
aF8.998544286092038
aa(lp726
F-3.8640934668229923
aF-5.564369291148844
aF-4.426086058620617
aF8.871538006762542
aF6.789239130590515
aa(lp727
F-8.184818907707317
aF0.28435810599348177
aF-8.427743949098247
aF5.822044348637176
aF1.403173531897533
aa(lp728
F-8.675776617545687
aF6.000031185053144
aF-8.485966781851983
aF0.04835143496897333
aF-4.639452556907038
aa(lp729
F-5.107242027517549
aF8.908222989707584
aF-4.57351144636166
aF-5.747965652487555
aF-8.511227232563085
aa(lp730
F0.8510278678586499
aF7.6481582536073045
aF1.4789407237992147
aF-8.854745729622657
aF-8.400504094348694
aa(lp731
F6.411092365742558
aF2.8094352708332675
aF6.8393800926991535
aF-7.818291870330318
aF-4.359091729184991
aa(lp732
F8.971335494340536
aF-3.3438536985587297
aF8.999597504982273
aF-3.1235723542749945
aF1.7219881019725647
aa(lp733
F7.333791039848676
aF-7.932516359600793
aF6.9488032252990335
aF3.0327013809854844
aF6.997330562451162
aasg18
(lp734
F5.232850895466447
aF0.9809611594234622
aF5.3032262011588225
aF3.3874491004764415
aF3.9344064088039583
asg20
(lp735
g22
ag23
ag48
ag22
ag22
asg24
I9
sg25
F346.4914569406229
sg26
F469.8937105632048
sg27
g48
sg28
I49
sg29
F16.46201233408118
sba(ibiiots
Biot
p736
(dp737
g3
(lp738
(lp739
F-2.3728592415176597
aF7.939414598210297
aF6.878929337133679
aF0.7113870274245607
aF-5.924522210901717
aa(lp740
F3.0931791364730055
aF6.713610689541966
aF7.894810540305301
aF5.66688357510772
aF-7.993993431452092
aa(lp741
F7.111884619651069
aF2.3464337257652828
aF5.216622150622343
aF7.970782317602391
aF-6.322986282085245
aa(lp742
F7.8028602495010535
aF-3.118665656003046
aF0.09751828036594369
aF6.545063428312922
aF-1.6933835791657723
aa(lp743
F4.84279084947742
aF-7.124506717219557
aF-5.067215477068654
aF2.0568366206383377
aF3.728572120307512
aa(lp744
F-0.38327421064181977
aF-7.79671190537671
aF-7.860942796955783
aF-3.3938069010256875
aF7.405887486225606
aa(lp745
F-5.430001007983377
aF-4.820748942207266
aF-6.976447617499622
aF-7.256450455737476
aF7.617905790067502
aa(lp746
F-7.93596998595042
aF0.4108960276775974
aF-2.8275950632366498
aF-7.7237201957460515
aF4.265421311144573
aa(lp747
F-6.728610409009239
aF5.450278179611415
aF2.644320646333444
aF-4.576975416576696
aF-1.0829012041403578
aasg8
I9
sg9
F29.05936505199696
sg10
F7.496331214163775
sg11
F3.0
sg12
I1142
sg13
(lp748
(lp749
F7.639996009157612
aF0.9826982434731621
aF4.084156115370911
aF7.9683077561808595
aF-5.375875423829334
aa(lp750
F7.3778210082441085
aF-4.350566803218617
aF-1.293045448808483
aF5.6468071107639535
aF-0.3099500248440087
aa(lp751
F3.6634815622260977
aF-7.648153291520199
aF-6.0652166768909686
aF0.6831026609500562
aF4.901004435476651
aa(lp752
F-1.7650416218198257
aF-7.367083854963719
aF-7.999405614481271
aF-4.600233115762798
aF7.818724451840704
aa(lp753
F-6.367682214763687
aF-3.638874006652801
aF-6.190583761565293
aF-7.731068691714041
aF7.077976401745455
aa(lp754
F-7.990813530514705
aF1.7920054309507767
aF-1.4851189659380821
aF-7.244451305554509
aF3.025364530328034
aa(lp755
F-5.8749543873377865
aF6.384385611490547
aF3.91524949911035
aF-3.3680746404180795
aF-2.4428490280113575
aa(lp756
F-1.0101387934804291
aF7.989440809871413
aF7.483629210373783
aF2.0842615809500926
aF-6.768026376901446
aa(lp757
F4.327331968288604
aF5.85614786056941
aF7.550335642829045
aF6.561348644604444
aF-7.926368965804668
aasg18
(lp758
F0.6516158655876036
aF2.4004021075570465
aF1.9877615572651055
aF1.0417950820572068
aF4.928257920042548
asg20
(lp759
g22
ag22
ag23
ag23
ag69
asg24
I8
sg25
F150.45325043858125
sg26
F963.1886858627681
sg27
g23
sg28
I44
sg29
F24.506436643245603
sba(ibiiots
Biot
p760
(dp761
g3
(lp762
(lp763
F9.50293632296707
aF-8.895984631192672
aF9.871567991668993
aF-1.5736052314546205
aF-8.4715496701595
aa(lp764
F2.055053703128743
aF-0.4924780530524964
aF6.3192972915393755
aF-9.339160473748338
aF-8.83736528181829
aa(lp765
F-7.447882619838334
aF8.403506578140194
aF-3.552270700129621
aF-7.765555242293708
aF-0.3658156116587735
aa(lp766
F-9.50293632296707
aF8.895984631192672
aF-9.871567991668993
aF1.573605231454637
aF8.471549670159499
aa(lp767
F-2.0550537031287437
aF0.4924780530524977
aF-6.319297291539376
aF9.339160473748338
aF8.837365281818292
aa(lp768
F7.447882619838334
aF-8.403506578140194
aF3.55227070012962
aF7.7655552422937095
aF0.36581561165877474
aasg8
I6
sg9
F13.775811292008601
sg10
F8.126145259817289
sg11
F3.0
sg12
I1715
sg13
(lp769
(lp770
F-3.1135512267558902
aF4.5674344485261935
aF1.597543547405265
aF-9.875412223068901
aF-5.313458966249806
aa(lp771
F-9.786559879613307
aF9.98786590655189
aF-7.750256882268039
aF-3.5749240055666527
aF4.679847740654895
aa(lp772
F-6.673008652857425
aF5.420431458025688
aF-9.347800429673315
aF6.300488217502251
aF9.993306706904713
aa(lp773
F3.113551226755889
aF-4.567434448526193
aF-1.5975435474052664
aF9.875412223068897
aF5.313458966249808
aa(lp774
F9.786559879613307
aF-9.98786590655189
aF7.750256882268038
aF3.5749240055666536
aF-4.6798477406548935
aa(lp775
F6.673008652857426
aF-5.420431458025689
aF9.347800429673315
aF-6.300488217502251
aF-9.993306706904713
aasg18
(lp776
F2.21035507827256
aF5.509660069118284
aF1.7332945673956481
aF3.622550004933369
aF4.475140527093758
asg20
(lp777
g69
ag22
ag69
ag22
ag23
asg24
I10
sg25
F648.1930932246214
sg26
F506.711506270864
sg27
g23
sg28
I54
sg29
F12.145178553080132
sba(ibiiots
Biot
p778
(dp779
g3
(lp780
(lp781
F-0.030464803259742757
aF6.4681088100315804
aF-4.434515416938734
aF-9.136658319566918
aF-10.93401024690635
aa(lp782
F-9.541475308559221
aF-4.471312316704462
aF-10.935130428502593
aF0.7364899760228247
aF-4.425100645868876
aa(lp783
F-9.511010505299478
aF-10.939421126736042
aF-6.500615011563857
aF9.873148295589738
aF6.5089096010374705
aa(lp784
F0.030464803259741408
aF-6.468108810031586
aF4.434515416938733
aF9.13665831956692
aF10.93401024690635
aa(lp785
F9.54147530855922
aF4.471312316704452
aF10.935130428502593
aF-0.7364899760228234
aF4.425100645868878
aa(lp786
F9.511010505299478
aF10.939421126736042
aF6.500615011563858
aF-9.873148295589733
aF-6.508909601037461
aasg8
I6
sg9
F16.291425994365635
sg10
F10.407268846376914
sg11
F3.0
sg12
F1357.0
sg13
(lp787
(lp788
F-10.999957813362848
aF-8.897391101979942
aF-10.066532323344155
aF6.1254775121200655
aF1.2030876612063361
aa(lp789
F-5.473595613137195
aF-10.050242094919255
aF-1.1928631571293957
aF10.975316966503422
aF10.070674469663432
aa(lp790
F5.526362200225658
aF-1.1528509929393158
aF8.873669166214764
aF4.849839454383357
aF8.867586808457093
aa(lp791
F10.999957813362848
aF8.897391101979938
aF10.066532323344155
aF-6.125477512120064
aF-1.2030876612063346
aa(lp792
F5.473595613137196
aF10.050242094919259
aF1.1928631571293973
aF-10.975316966503422
aF-10.070674469663432
aa(lp793
F-5.526362200225657
aF1.1528509929393171
aF-8.873669166214764
aF-4.849839454383367
aF-8.867586808457098
aasg18
(lp794
F1.2161733383228315
aF0.5848075787499154
aF1.6283468040179292
aF3.3748026681405037
aF2.893790974995891
asg20
(lp795
g22
ag23
ag69
ag22
ag69
asg24
I11
sg25
F334.5172968980363
sg26
F323.9117701212146
sg27
g69
sg28
I56
sg29
F30.030762611587914
sba(ibiiots
Biot
p796
(dp797
g3
(lp798
(lp799
F-8.091175549062324
aF-1.0271820869250987
aF7.9624039084481755
aF-8.783058702663977
aF8.995469083736698
aa(lp800
F-2.9344919285637543
aF-7.048704225423506
aF2.6637799533993336
aF-7.599423181013424
aF6.562668015343057
aa(lp801
F3.9411772650130827
aF-8.941191025825376
aF-4.195250171173269
aF-1.9641486261376886
aF0.2855450289135851
aa(lp802
F8.508158268461758
aF-5.596049387067344
aF-8.59675964302061
aF4.821697555413011
aF-6.158846362785258
aa(lp803
F8.09117554906232
aF1.0271820869250976
aF-7.9624039084481755
aF8.783058702663977
aF-8.995469083736698
aa(lp804
F2.9344919285637556
aF7.048704225423506
aF-2.663779953399335
aF7.5994231810134245
aF-6.562668015343058
aa(lp805
F-3.9411772650130885
aF8.941191025825374
aF4.195250171173268
aF1.9641486261376897
aF-0.2855450289135702
aa(lp806
F-8.508158268461758
aF5.596049387067346
aF8.59675964302061
aF-4.82169755541301
aF6.158846362785257
aasg8
I8
sg9
F15.247643955492226
sg10
F12.520107526929788
sg11
F3.0
sg12
I749
sg13
(lp807
(lp808
F3.941177265013083
aF-8.941191025825374
aF-4.195250171173256
aF-1.9641486261376881
aF0.2855450289135845
aa(lp809
F8.508158268461758
aF-5.596049387067344
aF-8.59675964302061
aF4.821697555413012
aF-6.15884636278526
aa(lp810
F8.091175549062324
aF1.027182086925082
aF-7.962403908448168
aF8.783058702663977
aF-8.995469083736698
aa(lp811
F2.934491928563755
aF7.048704225423506
aF-2.6637799533993345
aF7.599423181013424
aF-6.562668015343058
aa(lp812
F-3.9411772650130894
aF8.941191025825374
aF4.195250171173255
aF1.9641486261376893
aF-0.28554502891358563
aa(lp813
F-8.508158268461758
aF5.596049387067346
aF8.59675964302061
aF-4.821697555413011
aF6.158846362785258
aa(lp814
F-8.09117554906232
aF-1.027182086925097
aF7.962403908448168
aF-8.783058702663977
aF8.995469083736698
aa(lp815
F-2.934491928563756
aF-7.0487042254235055
aF2.6637799533993354
aF-7.5994231810134245
aF6.562668015343058
aasg18
(lp816
F1.1246324763832123
aF5.498131019042985
aF4.2978756035177454
aF0.45135211521365415
aF3.7812215563377634
asg20
(lp817
g23
ag22
ag22
ag23
ag23
asg24
I9
sg25
F503.4841372991075
sg26
F361.18366078028123
sg27
g23
sg28
I48
sg29
F14.943776521687344
sba(ibiiots
Biot
p818
(dp819
g3
(lp820
(lp821
F7.4031878156196695
aF10.978271768772537
aF-10.95229165955863
aF-0.963366118666101
aF8.765619047181518
aa(lp822
F10.025408130906621
aF4.049699372370814
aF-2.4111516702736155
aF-10.719120449740098
aF-3.61161044886828
aa(lp823
F-1.2071448396298288
aF-8.475419912428258
aF9.462117975298456
aF-5.66141464877734
aF-10.997717058706382
aa(lp824
F-10.771464671141898
aF-9.287796947179135
aF8.2590621845694
aF7.220173772389153
aF-3.1853524920667873
aa(lp825
F-5.449986435754573
aF2.7352457184640393
aF-4.357736830035608
aF10.123727444794383
aF9.029060952459927
aasg8
I5
sg9
F5.378596212255786
sg10
F11.782730013477725
sg11
F3.0
sg12
I1145
sg13
(lp826
(lp827
F8.135896396013193
aF0.6910491812974856
aF1.023380380876275
aF-10.957733603323554
aF-6.6455942337528064
aa(lp828
F-4.526719762560015
aF-10.227410962380432
aF10.732490280588973
aF-2.469910278525042
aF-10.390200670132673
aa(lp829
F-10.933563066821131
aF-7.011936772961846
aF5.609663396455606
aF9.431245102032358
aF0.2240970696788785
aa(lp830
F-2.230593830875982
aF5.893795709724755
aF-7.26552763613323
aF8.298740307812011
aF10.528700275973474
aa(lp831
F9.55498026424394
aF10.654502844320055
aF-10.100006421787622
aF-4.302341527995771
aF6.282997558233127
aasg18
(lp832
F3.717815733410656
aF4.487467570543671
aF1.501908281530321
aF6.208819028877926
aF5.19902402157963
asg20
(lp833
g48
ag22
ag22
ag22
ag69
asg24
I11
sg25
F39.68642993355394
sg26
F619.4882686739339
sg27
g22
sg28
I55
sg29
F20.39100352306011
sba(ibiiots
Biot
p834
(dp835
g3
(lp836
(lp837
F-6.956125609981301
aF-8.309904301896564
aF-9.795598947862661
aF-9.690800743895348
aF-9.98212107033423
aa(lp838
F2.7436119995633184
aF0.6626320849515726
aF-3.1557659095377106
aF-6.982287291414404
aF-5.5086938058250725
aa(lp839
F9.699737609544623
aF8.972536386848132
aF6.639833038324955
aF2.7085134524809424
aF4.473427264509162
aa(lp840
F6.956125609981295
aF8.309904301896564
aF9.795598947862663
aF9.690800743895348
aF9.98212107033423
aa(lp841
F-2.7436119995633175
aF-0.6626320849515712
aF3.1557659095377115
aF6.982287291414405
aF5.508693805825073
aa(lp842
F-9.699737609544623
aF-8.972536386848136
aF-6.639833038324953
aF-2.7085134524809495
aF-4.473427264509161
aasg8
I6
sg9
F44.812876954552806
sg10
F9.87505181743559
sg11
F3.0
sg12
I1426
sg13
(lp843
(lp844
F7.184171246439096
aF5.562867110880951
aF2.011527094680043
aF-2.467464476363818
aF-0.5977114163117445
aa(lp845
F9.616267113378878
aF9.978021783900491
aF9.489001081473203
aF7.158747389044602
aF8.345914722405476
aa(lp846
F2.4320958669397803
aF4.415154673019538
aF7.477473986793161
aF9.626211865408415
aF8.94362613871723
aa(lp847
F-7.184171246439101
aF-5.56286711088095
aF-2.011527094680033
aF2.467464476363819
aF0.5977114163117456
aa(lp848
F-9.61626711337888
aF-9.978021783900491
aF-9.489001081473203
aF-7.158747389044601
aF-8.345914722405475
aa(lp849
F-2.432095866939781
aF-4.415154673019531
aF-7.477473986793161
aF-9.626211865408415
aF-8.943626138717232
aasg18
(lp850
F4.1179412868506375
aF3.906327734664241
aF3.518951704484012
aF3.0670957121123172
aF3.256610374355905
asg20
(lp851
g23
ag69
ag22
ag22
ag23
asg24
I10
sg25
F156.0713063919306
sg26
F428.8856830984726
sg27
g23
sg28
I53
sg29
F46.237597076276785
sba(ibiiots
Biot
p852
(dp853
g3
(lp854
(lp855
F-7.054340325760718
aF8.526194851932107
aF-2.294271275448698
aF-5.746302986386793
aF8.820453034822695
aa(lp856
F-0.028697750984951767
aF7.568973066709624
aF5.373560094748449
aF-8.998320230882538
aF6.8979595794992425
aa(lp857
F7.018554815609919
aF0.9121601833416392
aF8.994991112950116
aF-5.474418809241979
aF-0.21883813191962195
aa(lp858
F8.780692453623532
aF-6.431527922759413
aF5.843010358720229
aF2.171831633550525
aF-7.1708462665186445
aa(lp859
F3.930789580574511
aF-8.932144323761996
aF-1.7088763713161081
aF8.182648558987873
aF-8.723060903822676
aa(lp860
F-3.8790780201419794
aF-4.706673866432544
aF-7.973944339026132
aF8.031764223895475
aF-3.706632762533486
aa(lp861
F-8.767920752920293
aF3.0630180109705827
aF-8.234469580627838
aF1.8327976100774375
aF4.100965450472488
aasg8
I7
sg9
F-20.679171827534542
sg10
F8.552112180419323
sg11
F3.0
sg12
I830
sg13
(lp862
(lp863
F5.588942884691717
aF2.881666418391699
aF8.702661622437759
aF-6.926759847767368
aF1.7887448841260514
aa(lp864
F8.999954246499723
aF-4.869357936671354
aF7.219754283085196
aF0.1738764575497454
aF-5.780843678875483
aa(lp865
F5.633816495083844
aF-8.953656448620649
aF0.30022471242130466
aF7.143580243898547
aF-8.997339043962828
aa(lp866
F-1.9746999860431351
aF-6.295669033451965
aF-6.8453801901638816
aF8.734022404110792
aF-5.438654596676979
aa(lp867
F-8.096227101140805
aF1.1030855721503898
aF-8.83627418924727
aF3.747567552439008
aF2.2154476902423883
aa(lp868
F-8.121130076144045
aF7.671194243078514
aF-4.173273496682562
aF-4.06088210266596
aF8.20127267951221
aa(lp869
F-2.0306564629472987
aF8.46273718512337
aF3.6322872581494408
aF-8.811404707564762
aF8.011372065634637
aasg18
(lp870
F5.309366581333295
aF1.171839218630393
aF5.95238916030303
aF3.761079707367915
aF1.2976824157671205
asg20
(lp871
g22
ag22
ag23
ag22
ag48
asg24
I9
sg25
F177.2758631301663
sg26
F740.9080875996897
sg27
g23
sg28
I49
sg29
F17.192952148797605
sba(ibiiots
Biot
p872
(dp873
g3
(lp874
(lp875
F0.7515780428737089
aF2.2186818269663817
aF-8.669090089342882
aF8.908697772014495
aF8.951841783505042
aa(lp876
F-8.14279280887656
aF6.444339528064288
aF6.428621874002856
aF-5.561745836146619
aF-3.6706901718219225
aa(lp877
F7.391214766002835
aF-8.663021355030665
aF2.240468215340022
aF-3.3469519358678665
aF-5.281151611683112
aasg8
I3
sg9
F33.122953470619855
sg10
F7.463511482959108
sg11
F3.0
sg12
I939
sg13
(lp878
(lp879
F-8.968563454950303
aF8.722238872599691
aF2.4180316422365182
aF-1.2787118545254794
aF0.9298003458233686
aa(lp880
F3.83339604941991
aF-6.282554261367598
aF6.298636423948601
aF-7.075802657939645
aF-8.21742256808605
aa(lp881
F5.1351674055303835
aF-2.4396846112320847
aF-8.7166680661851
aF8.354514512465123
aF7.287622222262682
aasg18
(lp882
F4.043560439805412
aF1.2346618186862857
aF5.969974991403871
aF2.6989316536354333
aF2.452874336513099
asg20
(lp883
g23
ag22
ag22
ag22
ag22
asg24
I9
sg25
F266.4650992021664
sg26
F791.3690281276542
sg27
g22
sg28
I46
sg29
F12.297550877925882
sba(ibiiots
Biot
p884
(dp885
g3
(lp886
(lp887
F4.460728450170437
aF-7.995199083803334
aF7.047754197962654
aF7.667367429235053
aF-5.293340653410714
aa(lp888
F-2.410866531342199
aF-4.768269431213815
aF7.353738220595977
aF6.56534182800222
aF-7.990065076591479
aa(lp889
F-7.4670298420392385
aF2.049264358050219
aF2.12220737419811
aF0.5194799217168662
aF-4.670107529474102
aa(lp890
F-6.900367382030388
aF7.3236602883276065
aF-4.707388910112131
aF-5.917560961080541
aF2.1665362401699038
aa(lp891
F-1.137587541509951
aF7.083190646049891
aF-7.992225331873735
aF-7.898557743939033
aF7.3717340316807
aa(lp892
F5.481818920324382
aF1.5089339765389567
aF-5.258753067048481
aF-3.931779444396086
aF7.025865741365858
aa(lp893
F7.973303926426962
aF-5.201580753949521
aF1.4346675162776057
aF2.9957089704615196
aF1.3893772462598235
aasg8
I7
sg9
F8.839953563370715
sg10
F10.806142394799018
sg11
F3.0
sg12
I604
sg13
(lp894
(lp895
F-6.6409262677611505
aF0.27711299202729794
aF3.7853877958671283
aF2.282865897310976
aF-5.9983785081428
aa(lp896
F-7.628087739928929
aF6.423675476808575
aF-3.1500054258597574
aF-4.571245637841448
aF0.39857254274874815
aa(lp897
F-2.871143559297491
aF7.733079308453071
aF-7.7133803135136
aF-7.983115971281705
aF6.495390339552297
aa(lp898
F4.047830282140184
aF3.2193166947619796
aF-6.468422500807544
aF-5.383537152457995
aF7.701046728856439
aa(lp899
F7.918705360436221
aF-3.7186570521777513
aF-0.3526106132205385
aF1.2699549463113728
aF3.1076578586068018
aa(lp900
F5.826633790171957
aF-7.856406192047757
aF6.028724258067224
aF6.967145068148388
aF-3.8258607638414626
aa(lp901
F-0.6530118657607905
aF-6.078121227825415
aF7.870306799467086
aF7.417932849810409
aF-7.878428197780028
aasg18
(lp902
F0.22304923371895638
aF2.419972640400332
aF5.034029678173843
aF5.237539053261896
aF1.537570886548461
asg20
(lp903
g23
ag22
ag22
ag48
ag69
asg24
I8
sg25
F262.5944557153204
sg26
F123.24797809251103
sg27
g48
sg28
I44
sg29
F11.184556857861772
sba(ibiiots
Biot
p904
(dp905
g3
(lp906
(lp907
F10.99190994678097
aF4.114032003317199
aF9.294291603772104
aF-7.510793270602229
aF0.030709087565666003
aa(lp908
F2.9955307923855115
aF10.973701760259008
aF-2.7234931347180784
aF5.322359863018203
aF-10.452091281409452
aa(lp909
F-9.140570102739817
aF2.6680886669274098
aF-10.977502929154872
aF10.800192566305714
aF-6.4904567529931505
aa(lp910
F-8.644713792429837
aF-9.32473227909947
aF-4.060976787101163
aF1.3525262280026804
aF6.440768405548404
aa(lp911
F3.7978431560031733
aF-8.431090151404154
aF8.467681247202009
aF-9.964285386724367
aF10.471070541288531
aasg8
I5
sg9
F12.940979668432568
sg10
F8.100829328700915
sg11
F3.0
sg12
I1246
sg13
(lp912
(lp913
F-0.42180057119164543
aF10.201702832159045
aF-5.883548553726005
aF8.036665007717833
aF-10.99995713409561
aa(lp914
F-10.584271126150833
aF-0.7601773983014495
aF-10.657513084446272
aF9.626654948035316
aF-3.4283797696702916
aa(lp915
F-6.119638730913697
aF-10.67151830178881
aF-0.7031567680085198
aF-2.087065051864654
aF8.881101910096833
aa(lp916
F6.802126391575896
aF-5.835183623770584
aF10.222938302397482
aF-10.916532086819736
aF8.917202607661748
aa(lp917
F10.323584036680277
aF7.06517649170181
aF7.021280103783315
aF-4.6597228170687615
aF-3.3699676139926784
aasg18
(lp918
F1.9574072150331536
aF0.7315774052946006
aF2.483403879340795
aF5.879853879362151
aF3.4870568932092607
asg20
(lp919
g23
ag69
ag23
ag22
ag22
asg24
I11
sg25
F562.7998625015745
sg26
F1138.7265233220812
sg27
g23
sg28
I55
sg29
F24.709370078886156
sba(ibiiots
Biot
p920
(dp921
g3
(lp922
(lp923
F5.751256779235309
aF-7.868156342582364
aF6.555105611348714
aF-6.60966304072088
aF7.84116422286382
aa(lp924
F5.560849346934325
aF-1.4464147982791515
aF4.58591216924884
aF4.506922951208329
aF-1.5862356792357286
aa(lp925
F-5.751256779235308
aF7.868156342582362
aF-6.555105611348705
aF6.609663040720885
aF-7.84116422286382
aa(lp926
F-5.560849346934325
aF1.4464147982791664
aF-4.585912169248841
aF-4.506922951208323
aF1.5862356792357277
aasg8
I4
sg9
F-9.251835123841037
sg10
F10.700146566240486
sg11
F3.0
sg12
I1548
sg13
(lp927
(lp928
F5.560849346934324
aF-1.446414798279151
aF4.585912169248839
aF4.50692295120833
aF-1.586235679235729
aa(lp929
F-5.751256779235309
aF7.868156342582364
aF-6.555105611348714
aF6.609663040720881
aF-7.84116422286382
aa(lp930
F-5.560849346934325
aF1.4464147982791589
aF-4.585912169248852
aF-4.506922951208323
aF1.5862356792357282
aa(lp931
F5.751256779235308
aF-7.8681563425823615
aF6.555105611348713
aF-6.609663040720886
aF7.84116422286382
aasg18
(lp932
F4.864347497243839
aF2.3095207378220826
aF5.0224616780595115
aF3.089775855736257
aF5.832517283347334
asg20
(lp933
g48
ag22
ag69
ag23
ag22
asg24
I8
sg25
F501.48015565344855
sg26
F560.5511860239019
sg27
g23
sg28
I41
sg29
F13.384588061792751
sba(ibiiots
Biot
p934
(dp935
g3
(lp936
(lp937
F6.422132891069031
aF-7.999484980276838
aF4.614046081363456
aF7.997525018981371
aF5.478628601621398
aa(lp938
F6.521417666150651
aF-2.5583086969219413
aF7.641289785147687
aF2.282128650709164
aF-3.851321739098244
aa(lp939
F-2.3916751185539145
aF6.4183632518646245
aF0.10853072374519704
aF-6.58709194614317
aF-7.858876337995466
aa(lp940
F-7.999554179464404
aF6.525075338717582
aF-7.57421410904953
aF-6.353175360446335
aF-1.0057309511652555
aa(lp941
F-2.5523212592013644
aF-2.385644913383426
aF-4.78965248120681
aF2.6606136368989692
aF7.237300426637577
aasg8
I5
sg9
F-20.41360952338706
sg10
F10.684647900317662
sg11
F3.0
sg12
I1025
sg13
(lp942
(lp943
F4.770346856303986
aF-0.09077472294240009
aF6.535333102379292
aF-0.19898133270996218
aF-5.829633663061168
aa(lp944
F-4.633693086903599
aF7.579911385448616
aF-2.368689599630483
aF-7.667586896906508
aF-7.011941304799212
aa(lp945
F-7.634126677445831
aF4.7754175908619505
aF-7.999263783749311
aF-4.539847981271596
aF1.496015609575975
aa(lp946
F-0.08445667418023065
aF-4.628541003821791
aF-2.5751273037026805
aF4.861806540723065
aF7.9365297992175545
aa(lp947
F7.581929582225673
aF-7.636013249546375
aF6.4077475847031815
aF7.544609670165
aF3.4090295590668527
aasg18
(lp948
F5.009537922555453
aF2.495473996199714
aF4.692369180940098
aF5.6732889655374565
aF0.1816563265010137
asg20
(lp949
g22
ag22
ag22
ag22
ag23
asg24
I8
sg25
F405.4045260800169
sg26
F1113.3188476185398
sg27
g23
sg28
I41
sg29
F17.30814093816514
sba(ibiiots
Biot
p950
(dp951
g3
(lp952
(lp953
F6.37950786595368
aF-10.806568688434995
aF10.764961541389493
aF3.9779824721052957
aF1.9116763777463899
aa(lp954
F-8.961131590833567
aF-2.053794824741842
aF-2.261769884936365
aF-10.255518292686286
aF10.832612493150785
aa(lp955
F-6.379507865953681
aF10.806568688434995
aF-10.764961541389493
aF-3.977982472105297
aF-1.911676377746398
aa(lp956
F8.961131590833567
aF2.053794824741853
aF2.261769884936364
aF10.255518292686286
aF-10.832612493150785
aasg8
I4
sg9
F-7.785539702620213
sg10
F11.480401678917575
sg11
F3.0
sg12
I470
sg13
(lp957
(lp958
F-8.961131590833556
aF-2.0537948247418414
aF-2.261769884936385
aF-10.255518292686286
aF10.832612493150783
aa(lp959
F-6.379507865953664
aF10.806568688434995
aF-10.764961541389496
aF-3.977982472105296
aF-1.9116763777463794
aa(lp960
F8.961131590833554
aF2.0537948247418427
aF2.261769884936384
aF10.255518292686286
aF-10.832612493150782
aa(lp961
F6.379507865953665
aF-10.806568688434991
aF10.764961541389496
aF3.9779824721052974
aF1.9116763777463783
aasg18
(lp962
F5.804782510992497
aF1.5232565218550098
aF5.059752502296901
aF6.0534355398839
aF3.4565393079393187
asg20
(lp963
g22
ag23
ag48
ag23
ag22
asg24
I11
sg25
F339.20108607670534
sg26
F420.37327492661746
sg27
g23
sg28
I56
sg29
F25.694018169040017
sba(ibiiots
Biot
p964
(dp965
g29
F15.910383804833744
sg8
I5
sg3
g350
sg9
F-14.26134888044845
sg10
F9.421721817425752
sg28
I45
sg12
I660
sg13
g356
sg18
g362
sg20
g363
sg25
F336.96321746908103
sg26
F826.9999876024881
sg27
g22
sg11
F3.0
sg24
I9
sba(ibiiots
Biot
p966
(dp967
g29
F16.775708633330115
sg8
I5
sg3
g154
sg9
F-12.925668189926068
sg10
F12.43411372804332
sg28
I58
sg12
I510
sg13
g160
sg18
g166
sg20
g167
sg25
F351.6315919887745
sg26
F992.2094544012394
sg27
g22
sg11
F3.0
sg24
I11
sba(ibiiots
Biot
p968
(dp969
g29
F11.66117950858577
sg8
I5
sg3
g524
sg9
F40.89702697963425
sg10
F11.332159475373341
sg28
I53
sg12
I1660
sg13
g530
sg18
g536
sg20
g537
sg25
F129.75687466759263
sg26
F681.4291642709819
sg27
g22
sg11
F3.0
sg24
I10
sba(ibiiots
Biot
p970
(dp971
g29
F22.790812690621898
sg8
I7
sg3
g650
sg9
F61.478429294824615
sg10
F8.69156045323207
sg28
I54
sg12
I1818
sg13
g658
sg18
g666
sg20
g667
sg25
F455.4081175623076
sg26
F164.609120839462
sg27
g23
sg11
F3.0
sg24
I10
sba(ibiiots
Biot
p972
(dp973
g29
F17.30814093816514
sg8
I5
sg3
g936
sg9
F8.53486405360389
sg10
F10.684647900317662
sg28
I41
sg12
I1294
sg13
g942
sg18
g948
sg20
g949
sg25
F541.8330637032589
sg26
F931.4624009925155
sg27
g23
sg11
F3.0
sg24
I8
sba(ibiiots
Biot
p974
(dp975
g29
F13.378831060736816
sg8
I6
sg3
g106
sg9
F10.301691930953577
sg10
F6.781381912934189
sg28
I49
sg12
F1434.0
sg13
g113
sg18
g120
sg20
g121
sg25
F578.4567711254168
sg26
F608.9549850093514
sg27
g69
sg11
F3.0
sg24
I9
sba(ibiiots
Biot
p976
(dp977
g3
g350
sg8
I5
sg9
F2.179341531037182
sg10
F9.421721817425752
sg11
F3.0
sg12
I770
sg13
g356
sg18
g362
sg20
g363
sg24
I9
sg25
F340.1282725593832
sg26
F1024.0333155873773
sg27
g22
sg28
I45
sg29
F15.910383804833744
sba(ibiiots
Biot
p978
(dp979
g29
F15.445359979510112
sg8
I4
sg3
g460
sg9
F4.489831143798508
sg10
F9.252897161359604
sg28
I51
sg12
I1754
sg13
g465
sg18
g470
sg20
g471
sg25
F287.84824141973286
sg26
F922.5056954553036
sg27
g48
sg11
F3.0
sg24
I10
sba(ibiiots
Biot
p980
(dp981
g29
F23.193983554787824
sg8
I9
sg3
g232
sg9
F32.2364168855448
sg10
F10.950771605220128
sg28
I43
sg12
I1443
sg13
g242
sg18
g252
sg20
g253
sg25
F324.16197362949777
sg26
F665.0021171351472
sg27
g22
sg11
F3.0
sg24
I8
sba(ibiiots
Biot
p982
(dp983
g29
F8.00000000000003
sg8
I4
sg3
g560
sg9
F3.6753497724623347
sg10
F9.550272568553632
sg28
I42
sg12
I862
sg13
g565
sg18
g570
sg20
g571
sg25
F630.241285661357
sg26
F62.88849867646084
sg27
g22
sg11
F3.0
sg24
I8
sba(ibiiots
Biot
p984
(dp985
g29
F12.297550877925882
sg8
I3
sg3
g874
sg9
F-6.324742740581524
sg10
F7.463511482959108
sg28
I46
sg12
I1803
sg13
g878
sg18
g882
sg20
g883
sg25
F41.125514717494724
sg26
F799.4227234168798
sg27
g22
sg11
F3.0
sg24
I9
sba(ibiiots
Biot
p986
(dp987
g29
F15.910383804833744
sg8
I5
sg3
g350
sg9
F5.682572437903248
sg10
F9.421721817425752
sg28
I45
sg12
I1460
sg13
g356
sg18
g362
sg20
g363
sg25
F609.3622955468626
sg26
F805.1630861480023
sg27
g22
sg11
F3.0
sg24
I9
sba(ibiiots
Biot
p988
(dp989
g29
F16.775708633330115
sg8
I5
sg3
g154
sg9
F-7.9091387790344925
sg10
F12.43411372804332
sg28
I58
sg12
I1200
sg13
g160
sg18
g166
sg20
g167
sg25
F41.41611306219964
sg26
F745.6144584878599
sg27
g22
sg11
F3.0
sg24
I11
sba(ibiiots
Biot
p990
(dp991
g29
F18.809202147228156
sg8
I5
sg3
g574
sg9
F8.064458794464564
sg10
F11.434160781015468
sg28
I40
sg12
F980.0
sg13
g580
sg18
g586
sg20
g587
sg25
F502.11143009428196
sg26
F117.23072438078715
sg27
g69
sg11
F3.0
sg24
I8
sba(ibiiots
Biot
p992
(dp993
g29
F22.790812690621898
sg8
I7
sg3
g650
sg9
F5.33763481964252
sg10
F8.69156045323207
sg28
I54
sg12
I1635
sg13
g658
sg18
g666
sg20
g667
sg25
F424.7512259980029
sg26
F553.4315412292674
sg27
g23
sg11
F3.0
sg24
I10
sba(ibiiots
Biot
p994
(dp995
g29
F11.66117950858577
sg8
I5
sg3
g524
sg9
F16.988797425377285
sg10
F11.332159475373341
sg28
I53
sg12
I1812
sg13
g530
sg18
g536
sg20
g537
sg25
F156.7086362037831
sg26
F909.7230040202058
sg27
g22
sg11
F3.0
sg24
I10
sba(ibiiots
Biot
p996
(dp997
g3
g524
sg8
I5
sg9
F55.782364057792215
sg10
F11.332159475373341
sg11
F3.0
sg12
I1216
sg13
g530
sg18
g536
sg20
g537
sg24
I10
sg25
F644.682740852907
sg26
F1173.296243355119
sg27
g22
sg28
I53
sg29
F11.66117950858577
sba(ibiiots
Biot
p998
(dp999
g29
F18.395480299251627
sg8
I8
sg3
g328
sg9
F29.41084029356256
sg10
F9.84098518182034
sg28
I43
sg12
I1470
sg13
g337
sg18
g346
sg20
g347
sg25
F259.34008882857165
sg26
F96.72030475643376
sg27
g23
sg11
F3.0
sg24
I8
sba(ibiiots
Biot
p1000
(dp1001
g29
F17.30814093816514
sg8
I5
sg3
g936
sg9
F38.11107386059576
sg10
F10.684647900317662
sg28
I41
sg12
I1431
sg13
g942
sg18
g948
sg20
g949
sg25
F208.39918724111044
sg26
F1090.9251799811063
sg27
g23
sg11
F3.0
sg24
I8
sba(ibiiots
Biot
p1002
(dp1003
g3
g936
sg8
I5
sg9
F-28.703117066199855
sg10
F10.684647900317662
sg11
F3.0
sg12
I891
sg13
g942
sg18
g948
sg20
g949
sg24
I8
sg25
F673.9467506508234
sg26
F1181.8369353278306
sg27
g23
sg28
I41
sg29
F17.30814093816514
sba(ibiiots
Biot
p1004
(dp1005
g3
g106
sg8
I6
sg9
F9.897822500183443
sg10
F6.781381912934189
sg11
F3.0
sg12
F704.0
sg13
g113
sg18
g120
sg20
g121
sg24
I9
sg25
F546.7631262217159
sg26
F977.647429734219
sg27
g69
sg28
I49
sg29
F13.378831060736816
sba(ibiiots
Biot
p1006
(dp1007
g29
F17.192952148797605
sg8
I7
sg3
g854
sg9
F4.867652504480295
sg10
F8.552112180419323
sg28
I49
sg12
I1124
sg13
g862
sg18
g870
sg20
g871
sg25
F228.1593332605947
sg26
F627.5525901982941
sg27
g23
sg11
F3.0
sg24
I9
sba(ibiiots
Biot
p1008
(dp1009
g3
g650
sg8
I7
sg9
F-24.955285662953777
sg10
F8.69156045323207
sg11
F3.0
sg12
I1827
sg13
g658
sg18
g666
sg20
g667
sg24
I10
sg25
F265.66060592162347
sg26
F41.952683363975495
sg27
g23
sg28
I54
sg29
F22.790812690621898
sba(ibiiots
Biot
p1010
(dp1011
g29
F26.93236000445876
sg8
I4
sg3
g256
sg9
F-95.84641365477094
sg10
F11.295741670682181
sg28
I48
sg12
I810
sg13
g261
sg18
g266
sg20
g267
sg25
F101.1921375653416
sg26
F803.2486714483291
sg27
g23
sg11
F3.0
sg24
I9
sba(ibiiots
Biot
p1012
(dp1013
g29
F13.378831060736816
sg8
I6
sg3
g106
sg9
F-9.600067038683486
sg10
F6.781381912934189
sg28
I49
sg12
F1678.0
sg13
g113
sg18
g120
sg20
g121
sg25
F505.4662202155044
sg26
F77.69355445383378
sg27
g69
sg11
F3.0
sg24
I9
sba(ibiiots
Biot
p1014
(dp1015
g29
F15.910383804833744
sg8
I5
sg3
g350
sg9
F4.696830968505221
sg10
F9.421721817425752
sg28
I45
sg12
I1010
sg13
g356
sg18
g362
sg20
g363
sg25
F474.12297389871753
sg26
F944.9772815970099
sg27
g22
sg11
F3.0
sg24
I9
sba(ibiiots
Biot
p1016
(dp1017
g3
g154
sg8
I5
sg9
F-22.804502113679906
sg10
F12.43411372804332
sg11
F3.0
sg12
I1620
sg13
g160
sg18
g166
sg20
g167
sg24
I11
sg25
F331.7523732583174
sg26
F1160.2198416639897
sg27
g22
sg28
I58
sg29
F16.775708633330115
sba(ibiiots
Biot
p1018
(dp1019
g29
F16.775708633330115
sg8
I5
sg3
g154
sg9
F13.229750010489525
sg10
F12.43411372804332
sg28
I58
sg12
I1710
sg13
g160
sg18
g166
sg20
g167
sg25
F219.94418298248453
sg26
F1124.9012254225602
sg27
g22
sg11
F3.0
sg24
I11
sba(ibiiots
Biot
p1020
(dp1021
g3
g350
sg8
I5
sg9
F5.675485855698376
sg10
F9.421721817425752
sg11
F3.0
sg12
I920
sg13
g356
sg18
g362
sg20
g363
sg24
I9
sg25
F510.4530374179845
sg26
F759.960137540873
sg27
g22
sg28
I45
sg29
F15.910383804833744
sba(ibiiots
Biot
p1022
(dp1023
g29
F28.391854794573767
sg8
I5
sg3
g490
sg9
F21.72049433497577
sg10
F7.058365415649364
sg28
I48
sg12
I1926
sg13
g496
sg18
g502
sg20
g503
sg25
F370.6218376507584
sg26
F793.7460881690351
sg27
g23
sg11
F3.0
sg24
I9
sba(ibiiots
Biot
p1024
(dp1025
g3
g560
sg8
I4
sg9
F-28.60416097013432
sg10
F9.550272568553632
sg11
F3.0
sg12
I614
sg13
g565
sg18
g570
sg20
g571
sg24
I8
sg25
F560.446042481139
sg26
F429.4967377139766
sg27
g22
sg28
I42
sg29
F8.00000000000003
sba(ibiiots
Biot
p1026
(dp1027
g3
g154
sg8
I5
sg9
F4.088845719995259
sg10
F12.43411372804332
sg11
F3.0
sg12
I1580
sg13
g160
sg18
g166
sg20
g167
sg24
I11
sg25
F675.0606471463702
sg26
F999.1829664868737
sg27
g22
sg28
I58
sg29
F16.775708633330115
sba(ibiiots
Biot
p1028
(dp1029
g3
g350
sg8
I5
sg9
F-21.806824091676873
sg10
F9.421721817425752
sg11
F3.0
sg12
I1780
sg13
g356
sg18
g362
sg20
g363
sg24
I9
sg25
F254.84077151434016
sg26
F1137.0484367912866
sg27
g22
sg28
I45
sg29
F15.910383804833744
sba(ibiiots
Biot
p1030
(dp1031
g3
g874
sg8
I3
sg9
F-33.230861372767826
sg10
F7.463511482959108
sg11
F3.0
sg12
I960
sg13
g878
sg18
g882
sg20
g883
sg24
I9
sg25
F160.45845312418095
sg26
F854.2869592462785
sg27
g22
sg28
I46
sg29
F12.297550877925882
sba(ibiiots
Biot
p1032
(dp1033
g3
g460
sg8
I4
sg9
F-34.93289000068206
sg10
F9.252897161359604
sg11
F3.0
sg12
I654
sg13
g465
sg18
g470
sg20
g471
sg24
I10
sg25
F570.5271078006307
sg26
F477.2561857527674
sg27
g48
sg28
I51
sg29
F15.445359979510112
sba(ibiiots
Biot
p1034
(dp1035
g29
F17.277241434322114
sg8
I3
sg3
g142
sg9
F15.416198319561614
sg10
F6.861619553063576
sg28
I56
sg12
I1790
sg13
g146
sg18
g150
sg20
g151
sg25
F82.98111742861535
sg26
F85.11019229620024
sg27
g23
sg11
F3.0
sg24
I11
sba(ibiiots
Biot
p1036
(dp1037
g29
F15.445359979510112
sg8
I4
sg3
g460
sg9
F-19.095639705593385
sg10
F9.252897161359604
sg28
I51
sg12
I897
sg13
g465
sg18
g470
sg20
g471
sg25
F431.987209911384
sg26
F376.8991656729211
sg27
g48
sg11
F3.0
sg24
I10
sba(ibiiots
Biot
p1038
(dp1039
g29
F39.096188910597085
sg8
I4
sg3
g688
sg9
F-40.30332355557246
sg10
F7.075141344670594
sg28
I58
sg12
I1550
sg13
g693
sg18
g698
sg20
g699
sg25
F187.18131168380745
sg26
F1000.2170921023933
sg27
g23
sg11
F3.0
sg24
I11
sba(ibiiots
Biot
p1040
(dp1041
g3
g574
sg8
I5
sg9
F12.259555367563202
sg10
F11.434160781015468
sg11
F3.0
sg12
F836.0
sg13
g580
sg18
g586
sg20
g587
sg24
I8
sg25
F538.218200664125
sg26
F320.63939532621396
sg27
g69
sg28
I40
sg29
F18.809202147228156
sba(ibiiots
Biot
p1042
(dp1043
g29
F22.790812690621898
sg8
I7
sg3
g650
sg9
F-7.907855385257754
sg10
F8.69156045323207
sg28
I54
sg12
I1646
sg13
g658
sg18
g666
sg20
g667
sg25
F497.10985699240035
sg26
F513.3047150484496
sg27
g23
sg11
F3.0
sg24
I10
sba(ibiiots
Biot
p1044
(dp1045
g29
F13.378831060736816
sg8
I6
sg3
g106
sg9
F-21.16464536121224
sg10
F6.781381912934189
sg28
I49
sg12
F1764.0
sg13
g113
sg18
g120
sg20
g121
sg25
F633.6031886306331
sg26
F834.3333906140882
sg27
g69
sg11
F3.0
sg24
I9
sba(ibiiots
Biot
p1046
(dp1047
g29
F8.00000000000003
sg8
I4
sg3
g560
sg9
F-14.246453566758543
sg10
F9.550272568553632
sg28
I42
sg12
I1912
sg13
g565
sg18
g570
sg20
g571
sg25
F452.02480157931416
sg26
F628.7247548626646
sg27
g22
sg11
F3.0
sg24
I8
sba(ibiiots
Biot
p1048
(dp1049
g29
F9.87944725808721
sg8
I9
sg3
g436
sg9
F-2.2593699006353596
sg10
F9.6092359147952
sg28
I47
sg12
F1678.0
sg13
g446
sg18
g456
sg20
g457
sg25
F95.87604982870005
sg26
F523.0072563235518
sg27
g69
sg11
F3.0
sg24
I9
sba(ibiiots
Biot
p1050
(dp1051
g3
g350
sg8
I5
sg9
F18.972060191971238
sg10
F9.421721817425752
sg11
F3.0
sg12
I910
sg13
g356
sg18
g362
sg20
g363
sg24
I9
sg25
F433.40166488241636
sg26
F800.9882339062614
sg27
g22
sg28
I45
sg29
F15.910383804833744
sba(ibiiots
Biot
p1052
(dp1053
g29
F12.145178553080132
sg8
I6
sg3
g762
sg9
F-22.642280360343513
sg10
F8.126145259817289
sg28
I54
sg12
I1671
sg13
g769
sg18
g776
sg20
g777
sg25
F384.04968904189457
sg26
F582.6521058560526
sg27
g23
sg11
F3.0
sg24
I10
sba(ibiiots
Biot
p1054
(dp1055
g29
F18.809202147228156
sg8
I5
sg3
g574
sg9
F41.61411943101375
sg10
F11.434160781015468
sg28
I40
sg12
F890.0
sg13
g580
sg18
g586
sg20
g587
sg25
F588.4643702591923
sg26
F66.46722588389554
sg27
g69
sg11
F3.0
sg24
I8
sba(ibiiots
Biot
p1056
(dp1057
g3
g650
sg8
I7
sg9
F7.816386065443963
sg10
F8.69156045323207
sg11
F3.0
sg12
I1672
sg13
g658
sg18
g666
sg20
g667
sg24
I10
sg25
F491.6795661568522
sg26
F794.7453521463163
sg27
g23
sg28
I54
sg29
F22.790812690621898
sba(ibiiots
Biot
p1058
(dp1059
g29
F15.910383804833744
sg8
I5
sg3
g350
sg9
F-50.46936084966573
sg10
F9.421721817425752
sg28
I45
sg12
I960
sg13
g356
sg18
g362
sg20
g363
sg25
F373.93707126311097
sg26
F894.3860752030849
sg27
g22
sg11
F3.0
sg24
I9
sba(ibiiots
Biot
p1060
(dp1061
g3
g106
sg8
I6
sg9
F-0.44853606976235216
sg10
F6.781381912934189
sg11
F3.0
sg12
F1896.0
sg13
g113
sg18
g120
sg20
g121
sg24
I9
sg25
F608.0907581739286
sg26
F650.5744151334713
sg27
g69
sg28
I49
sg29
F13.378831060736816
sba(ibiiots
Biot
p1062
(dp1063
g29
F15.910383804833744
sg8
I5
sg3
g350
sg9
F27.044339120432024
sg10
F9.421721817425752
sg28
I45
sg12
I1340
sg13
g356
sg18
g362
sg20
g363
sg25
F640.509744651042
sg26
F999.2584007680761
sg27
g22
sg11
F3.0
sg24
I9
sba(ibiiots
Biot
p1064
(dp1065
g3
g650
sg8
I7
sg9
F-11.879741001906078
sg10
F8.69156045323207
sg11
F3.0
sg12
I1776
sg13
g658
sg18
g666
sg20
g667
sg24
I10
sg25
F51.53132417366114
sg26
F177.28990600881033
sg27
g23
sg28
I54
sg29
F22.790812690621898
sba(ibiiots
Biot
p1066
(dp1067
g29
F13.378831060736816
sg8
I6
sg3
g106
sg9
F10.218628992095091
sg10
F6.781381912934189
sg28
I49
sg12
F1986.0
sg13
g113
sg18
g120
sg20
g121
sg25
F433.89032356553264
sg26
F133.20907847318978
sg27
g69
sg11
F3.0
sg24
I9
sba(ibiiots
Biot
p1068
(dp1069
g29
F22.790812690621898
sg8
I7
sg3
g650
sg9
F-25.14189824552053
sg10
F8.69156045323207
sg28
I54
sg12
I1508
sg13
g658
sg18
g666
sg20
g667
sg25
F655.9003290875307
sg26
F254.66715903192818
sg27
g23
sg11
F3.0
sg24
I10
sba(ibiiots
Biot
p1070
(dp1071
g3
g936
sg8
I5
sg9
F34.716905201096786
sg10
F10.684647900317662
sg11
F3.0
sg12
I1426
sg13
g942
sg18
g948
sg20
g949
sg24
I8
sg25
F94.60937942935446
sg26
F1033.9942687669468
sg27
g23
sg28
I41
sg29
F17.30814093816514
sba(ibiiots
Biot
p1072
(dp1073
g3
g524
sg8
I5
sg9
F9.956751696680843
sg10
F11.332159475373341
sg11
F3.0
sg12
I-24
sg13
g530
sg18
g536
sg20
g537
sg24
I10
sg25
F163.75348263937798
sg26
F1052.2844015094272
sg27
g22
sg28
I53
sg29
F11.66117950858577
sba(ibiiots
Biot
p1074
(dp1075
g3
g106
sg8
I6
sg9
F-3.7603213000414026
sg10
F6.781381912934189
sg11
F3.0
sg12
F1094.0
sg13
g113
sg18
g120
sg20
g121
sg24
I9
sg25
F202.3219967910887
sg26
F76.7119291251315
sg27
g69
sg28
I49
sg29
F13.378831060736816
sba(ibiiots
Biot
p1076
(dp1077
g29
F17.30814093816514
sg8
I5
sg3
g936
sg9
F-74.30528076686902
sg10
F10.684647900317662
sg28
I41
sg12
I879
sg13
g942
sg18
g948
sg20
g949
sg25
F446.67763277115847
sg26
F1128.5799693151528
sg27
g23
sg11
F3.0
sg24
I8
sba(ibiiots
Biot
p1078
(dp1079
g3
g936
sg8
I5
sg9
F-6.717071082168794
sg10
F10.684647900317662
sg11
F3.0
sg12
I1312
sg13
g942
sg18
g948
sg20
g949
sg24
I8
sg25
F393.81067904882866
sg26
F996.9783183553587
sg27
g23
sg28
I41
sg29
F17.30814093816514
sba(ibiiots
Biot
p1080
(dp1081
g3
g524
sg8
I5
sg9
F47.997692171989
sg10
F11.332159475373341
sg11
F3.0
sg12
I1120
sg13
g530
sg18
g536
sg20
g537
sg24
I10
sg25
F41.72665237123123
sg26
F1130.5916959990316
sg27
g22
sg28
I53
sg29
F11.66117950858577
sba(ibiiots
Biot
p1082
(dp1083
g29
F23.193983554787824
sg8
I9
sg3
g232
sg9
F2.930241533311346
sg10
F10.950771605220128
sg28
I43
sg12
I548
sg13
g242
sg18
g252
sg20
g253
sg25
F444.79454047189984
sg26
F743.5454928979198
sg27
g22
sg11
F3.0
sg24
I8
sba(ibiiots
Biot
p1084
(dp1085
g29
F15.910383804833744
sg8
I5
sg3
g350
sg9
F-1.9201880142515966
sg10
F9.421721817425752
sg28
I45
sg12
I1080
sg13
g356
sg18
g362
sg20
g363
sg25
F464.7455859272767
sg26
F1034.960943133185
sg27
g22
sg11
F3.0
sg24
I9
sba(ibiiots
Biot
p1086
(dp1087
g29
F17.30814093816514
sg8
I5
sg3
g936
sg9
F-34.49754345875687
sg10
F10.684647900317662
sg28
I41
sg12
I1099
sg13
g942
sg18
g948
sg20
g949
sg25
F667.0265709106789
sg26
F1078.0839097443977
sg27
g23
sg11
F3.0
sg24
I8
sba(ibiiots
Biot
p1088
(dp1089
g3
g350
sg8
I5
sg9
F17.556508319166625
sg10
F9.421721817425752
sg11
F3.0
sg12
I1580
sg13
g356
sg18
g362
sg20
g363
sg24
I9
sg25
F481.7372481264761
sg26
F851.0646224156136
sg27
g22
sg28
I45
sg29
F15.910383804833744
sba(ibiiots
Biot
p1090
(dp1091
g29
F16.775708633330115
sg8
I5
sg3
g154
sg9
F-45.17641604502955
sg10
F12.43411372804332
sg28
I58
sg12
I1220
sg13
g160
sg18
g166
sg20
g167
sg25
F257.673547020927
sg26
F996.0409563358602
sg27
g22
sg11
F3.0
sg24
I11
sba(ibiiots
Biot
p1092
(dp1093
g29
F16.46201233408118
sg8
I9
sg3
g714
sg9
F-4.668368737503893
sg10
F10.845845023598272
sg28
I49
sg12
I466
sg13
g724
sg18
g734
sg20
g735
sg25
F400.76324570654305
sg26
F742.1603465198857
sg27
g48
sg11
F3.0
sg24
I9
sba(ibiiots
Biot
p1094
(dp1095
g3
g232
sg8
I9
sg9
F-8.927613955409498
sg10
F10.950771605220128
sg11
F3.0
sg12
I1050
sg13
g242
sg18
g252
sg20
g253
sg24
I8
sg25
F486.6478027103977
sg26
F717.7430566996521
sg27
g22
sg28
I43
sg29
F23.193983554787824
sba(ibiiots
Biot
p1096
(dp1097
g29
F16.775708633330115
sg8
I5
sg3
g154
sg9
F-0.0395987647597269
sg10
F12.43411372804332
sg28
I58
sg12
I1610
sg13
g160
sg18
g166
sg20
g167
sg25
F260.0664117418425
sg26
F1060.5417459242642
sg27
g22
sg11
F3.0
sg24
I11
sba(ibiiots
Biot
p1098
(dp1099
g3
g154
sg8
I5
sg9
F8.011142603544979
sg10
F12.43411372804332
sg11
F3.0
sg12
I1130
sg13
g160
sg18
g166
sg20
g167
sg24
I11
sg25
F367.32647370650227
sg26
F1104.5498722419406
sg27
g22
sg28
I58
sg29
F16.775708633330115
sba(ibiiots
Biot
p1100
(dp1101
g29
F15.910383804833744
sg8
I5
sg3
g350
sg9
F-14.294815325617261
sg10
F9.421721817425752
sg28
I45
sg12
I680
sg13
g356
sg18
g362
sg20
g363
sg25
F299.98034035215926
sg26
F1006.2156763834964
sg27
g22
sg11
F3.0
sg24
I9
sba(ibiiots
Biot
p1102
(dp1103
g29
F14.377078749000441
sg8
I8
sg3
g590
sg9
F0.4511150125145429
sg10
F11.292845477952424
sg28
I48
sg12
I89
sg13
g599
sg18
g608
sg20
g609
sg25
F413.28262115915413
sg26
F242.68021939763904
sg27
g22
sg11
F3.0
sg24
I9
sba(ibiiots
Biot
p1104
(dp1105
g29
F9.00000000000002
sg8
I9
sg3
g270
sg9
F-12.505013878699675
sg10
F10.149364673983502
sg28
I49
sg12
F968.0
sg13
g280
sg18
g290
sg20
g291
sg25
F319.7056294441948
sg26
F563.6516786560205
sg27
g69
sg11
F3.0
sg24
I9
sba(ibiiots
Biot
p1106
(dp1107
g3
g350
sg8
I5
sg9
F-25.444535058024577
sg10
F9.421721817425752
sg11
F3.0
sg12
I430
sg13
g356
sg18
g362
sg20
g363
sg24
I9
sg25
F361.00455646239794
sg26
F957.6622636843325
sg27
g22
sg28
I45
sg29
F15.910383804833744
sba(ibiiots
Biot
p1108
(dp1109
g29
F15.910383804833744
sg8
I5
sg3
g350
sg9
F29.9758821115207
sg10
F9.421721817425752
sg28
I45
sg12
I1880
sg13
g356
sg18
g362
sg20
g363
sg25
F514.9738321638933
sg26
F1017.0817776472696
sg27
g22
sg11
F3.0
sg24
I9
sba(ibiiots
Biot
p1110
(dp1111
g29
F18.395480299251627
sg8
I8
sg3
g328
sg9
F17.593911556115206
sg10
F9.84098518182034
sg28
I43
sg12
I1518
sg13
g337
sg18
g346
sg20
g347
sg25
F257.05135540045836
sg26
F271.57839246247306
sg27
g23
sg11
F3.0
sg24
I8
sba(ibiiots
Biot
p1112
(dp1113
g3
g460
sg8
I4
sg9
F17.282823491845477
sg10
F9.252897161359604
sg11
F3.0
sg12
I604
sg13
g465
sg18
g470
sg20
g471
sg24
I10
sg25
F412.74496602828447
sg26
F414.3714089827231
sg27
g48
sg28
I51
sg29
F15.445359979510112
sba(ibiiots
Biot
p1114
(dp1115
g29
F20.39100352306011
sg8
I5
sg3
g820
sg9
F44.78526076947641
sg10
F11.782730013477725
sg28
I55
sg12
I800
sg13
g826
sg18
g832
sg20
g833
sg25
F147.345632843658
sg26
F765.4707312839826
sg27
g22
sg11
F3.0
sg24
I11
sba(ibiiots
Biot
p1116
(dp1117
g3
g154
sg8
I5
sg9
F-15.939998049275928
sg10
F12.43411372804332
sg11
F3.0
sg12
I1170
sg13
g160
sg18
g166
sg20
g167
sg24
I11
sg25
F166.06791248239549
sg26
F1077.3431874852693
sg27
g22
sg28
I58
sg29
F16.775708633330115
sba(ibiiots
Biot
p1118
(dp1119
g29
F15.445359979510112
sg8
I4
sg3
g460
sg9
F-18.16258418416173
sg10
F9.252897161359604
sg28
I51
sg12
I1848
sg13
g465
sg18
g470
sg20
g471
sg25
F592.925369763036
sg26
F497.1490343832806
sg27
g48
sg11
F3.0
sg24
I10
sba(ibiiots
Biot
p1120
(dp1121
g3
g560
sg8
I4
sg9
F-15.09571735690324
sg10
F9.550272568553632
sg11
F3.0
sg12
I716
sg13
g565
sg18
g570
sg20
g571
sg24
I8
sg25
F665.7955491882439
sg26
F541.787267642905
sg27
g22
sg28
I42
sg29
F8.00000000000003
sba(ibiiots
Biot
p1122
(dp1123
g3
g540
sg8
I7
sg9
F-13.666074338620751
sg10
F10.773536536066391
sg11
F3.0
sg12
F530.0
sg13
g548
sg18
g556
sg20
g557
sg24
I11
sg25
F587.4092034750328
sg26
F768.7588745783747
sg27
g69
sg28
I59
sg29
F23.733000327626105
sba(ibiiots
Biot
p1124
(dp1125
g29
F8.00000000000003
sg8
I4
sg3
g560
sg9
F-31.806298013182865
sg10
F9.550272568553632
sg28
I42
sg12
I1371
sg13
g565
sg18
g570
sg20
g571
sg25
F627.5079382615115
sg26
F537.6314575095847
sg27
g22
sg11
F3.0
sg24
I8
sba(ibiiots
Biot
p1126
(dp1127
g29
F12.120155856957906
sg8
I6
sg3
g124
sg9
F29.64007386385709
sg10
F6.904313258964103
sg28
I45
sg12
I1172
sg13
g131
sg18
g138
sg20
g139
sg25
F372.50980227389033
sg26
F285.7055577441977
sg27
g22
sg11
F3.0
sg24
I9
sba(ibiiots
Biot
p1128
(dp1129
g3
g154
sg8
I5
sg9
F3.838162799006482
sg10
F12.43411372804332
sg11
F3.0
sg12
I1520
sg13
g160
sg18
g166
sg20
g167
sg24
I11
sg25
F28.648274717405336
sg26
F990.5915067430442
sg27
g22
sg28
I58
sg29
F16.775708633330115
sba(ibiiots
Biot
p1130
(dp1131
g3
g350
sg8
I5
sg9
F33.18927402576999
sg10
F9.421721817425752
sg11
F3.0
sg12
I970
sg13
g356
sg18
g362
sg20
g363
sg24
I9
sg25
F512.082333857151
sg26
F978.7619658103355
sg27
g22
sg28
I45
sg29
F15.910383804833744
sba(ibiiots
Biot
p1132
(dp1133
g3
g328
sg8
I8
sg9
F-40.20254228284022
sg10
F9.84098518182034
sg11
F3.0
sg12
I1444
sg13
g337
sg18
g346
sg20
g347
sg24
I8
sg25
F172.6703323637163
sg26
F369.19854402625776
sg27
g23
sg28
I43
sg29
F18.395480299251627
sba(ibiiots
Biot
p1134
(dp1135
g29
F16.775708633330115
sg8
I5
sg3
g154
sg9
F17.277865455136585
sg10
F12.43411372804332
sg28
I58
sg12
I1840
sg13
g160
sg18
g166
sg20
g167
sg25
F665.1451325684889
sg26
F915.7643736257023
sg27
g22
sg11
F3.0
sg24
I11
sba(ibiiots
Biot
p1136
(dp1137
g29
F15.910383804833744
sg8
I5
sg3
g350
sg9
F-0.44018491897835155
sg10
F9.421721817425752
sg28
I45
sg12
I1260
sg13
g356
sg18
g362
sg20
g363
sg25
F467.4814252960361
sg26
F982.5618184142317
sg27
g22
sg11
F3.0
sg24
I9
sba(ibiiots
Biot
p1138
(dp1139
g29
F11.66117950858577
sg8
I5
sg3
g524
sg9
F1.273190603034771
sg10
F11.332159475373341
sg28
I53
sg12
I1366
sg13
g530
sg18
g536
sg20
g537
sg25
F197.7974416550971
sg26
F904.7772124587439
sg27
g22
sg11
F3.0
sg24
I10
sba(ibiiots
Biot
p1140
(dp1141
g3
g106
sg8
I6
sg9
F2.2337818209711644
sg10
F6.781381912934189
sg11
F3.0
sg12
F1052.0
sg13
g113
sg18
g120
sg20
g121
sg24
I9
sg25
F562.8009192774568
sg26
F635.9467571735712
sg27
g69
sg28
I49
sg29
F13.378831060736816
sba(ibiiots
Biot
p1142
(dp1143
g3
g650
sg8
I7
sg9
F2.8178873235201536
sg10
F8.69156045323207
sg11
F3.0
sg12
I1803
sg13
g658
sg18
g666
sg20
g667
sg24
I10
sg25
F611.3665431325201
sg26
F545.9238512051982
sg27
g23
sg28
I54
sg29
F22.790812690621898
sba(ibiiots
Biot
p1144
(dp1145
g29
F13.378831060736816
sg8
I6
sg3
g106
sg9
F2.2386936037838208
sg10
F6.781381912934189
sg28
I49
sg12
F1604.0
sg13
g113
sg18
g120
sg20
g121
sg25
F444.65885347927303
sg26
F776.1368956519606
sg27
g69
sg11
F3.0
sg24
I9
sba(ibiiots
Biot
p1146
(dp1147
g29
F13.378831060736816
sg8
I6
sg3
g106
sg9
F-5.169618522578098
sg10
F6.781381912934189
sg28
I49
sg12
F1716.0
sg13
g113
sg18
g120
sg20
g121
sg25
F304.8531276284579
sg26
F538.9391985725642
sg27
g69
sg11
F3.0
sg24
I9
sba(ibiiots
Biot
p1148
(dp1149
g3
g106
sg8
I6
sg9
F-15.00742888834585
sg10
F6.781381912934189
sg11
F3.0
sg12
F1806.0
sg13
g113
sg18
g120
sg20
g121
sg24
I9
sg25
F374.07118814849326
sg26
F36.01730253474544
sg27
g69
sg28
I49
sg29
F13.378831060736816
sba(ibiiots
Biot
p1150
(dp1151
g3
g650
sg8
I7
sg9
F-16.022144854666802
sg10
F8.69156045323207
sg11
F3.0
sg12
I1845
sg13
g658
sg18
g666
sg20
g667
sg24
I10
sg25
F398.39751885524896
sg26
F214.24038777949855
sg27
g23
sg28
I54
sg29
F22.790812690621898
sba(ibiiots
Biot
p1152
(dp1153
g29
F22.790812690621898
sg8
I7
sg3
g650
sg9
F38.457091103994756
sg10
F8.69156045323207
sg28
I54
sg12
I1813
sg13
g658
sg18
g666
sg20
g667
sg25
F35.30224017931022
sg26
F232.35541805792553
sg27
g23
sg11
F3.0
sg24
I10
sba(ibiiots
Biot
p1154
(dp1155
g29
F8.00000000000003
sg8
I4
sg3
g560
sg9
F6.098963921372159
sg10
F9.550272568553632
sg28
I42
sg12
I756
sg13
g565
sg18
g570
sg20
g571
sg25
F428.93341057931605
sg26
F708.0941511037994
sg27
g22
sg11
F3.0
sg24
I8
sba(ibiiots
Biot
p1156
(dp1157
g29
F22.790812690621898
sg8
I7
sg3
g650
sg9
F65.70943312382158
sg10
F8.69156045323207
sg28
I54
sg12
I1489
sg13
g658
sg18
g666
sg20
g667
sg25
F404.11525322799474
sg26
F936.6945844166478
sg27
g23
sg11
F3.0
sg24
I10
sba(ibiiots
Biot
p1158
(dp1159
g3
g650
sg8
I7
sg9
F46.38398340399662
sg10
F8.69156045323207
sg11
F3.0
sg12
I1472
sg13
g658
sg18
g666
sg20
g667
sg24
I10
sg25
F565.1166565765064
sg26
F725.3463201372285
sg27
g23
sg28
I54
sg29
F22.790812690621898
sba(ibiiots
Biot
p1160
(dp1161
g29
F11.66117950858577
sg8
I5
sg3
g524
sg9
F-58.59587245691369
sg10
F11.332159475373341
sg28
I53
sg12
I532
sg13
g530
sg18
g536
sg20
g537
sg25
F320.1424246814715
sg26
F1093.1217522384595
sg27
g22
sg11
F3.0
sg24
I10
sba(ibiiots
Biot
p1162
(dp1163
g3
g106
sg8
I6
sg9
F4.072757403303739
sg10
F6.781381912934189
sg11
F3.0
sg12
F1574.0
sg13
g113
sg18
g120
sg20
g121
sg24
I9
sg25
F176.71703819099926
sg26
F535.1960036544525
sg27
g69
sg28
I49
sg29
F13.378831060736816
sba(ibiiots
Biot
p1164
(dp1165
g29
F22.790812690621898
sg8
I7
sg3
g650
sg9
F-0.08970685855854121
sg10
F8.69156045323207
sg28
I54
sg12
I1814
sg13
g658
sg18
g666
sg20
g667
sg25
F119.34709620660408
sg26
F112.51033842463272
sg27
g23
sg11
F3.0
sg24
I10
sba(ibiiots
Biot
p1166
(dp1167
g3
g574
sg8
I5
sg9
F-32.82588358977297
sg10
F11.434160781015468
sg11
F3.0
sg12
F1196.0
sg13
g580
sg18
g586
sg20
g587
sg24
I8
sg25
F590.6011859101201
sg26
F384.81627348356557
sg27
g69
sg28
I40
sg29
F18.809202147228156
sba(ibiiots
Biot
p1168
(dp1169
g3
g350
sg8
I5
sg9
F11.726365401120555
sg10
F9.421721817425752
sg11
F3.0
sg12
I1570
sg13
g356
sg18
g362
sg20
g363
sg24
I9
sg25
F647.131008236318
sg26
F782.6476035694318
sg27
g22
sg28
I45
sg29
F15.910383804833744
sba(ibiiots
Biot
p1170
(dp1171
g29
F26.93236000445876
sg8
I4
sg3
g256
sg9
F29.81876850430462
sg10
F11.295741670682181
sg28
I48
sg12
I1104
sg13
g261
sg18
g266
sg20
g267
sg25
F113.33090684897452
sg26
F554.8365803888124
sg27
g23
sg11
F3.0
sg24
I9
sba(ibiiots
Biot
p1172
(dp1173
g3
g854
sg8
I7
sg9
F-33.6773749184528
sg10
F8.552112180419323
sg11
F3.0
sg12
I1028
sg13
g862
sg18
g870
sg20
g871
sg24
I9
sg25
F168.2750616218678
sg26
F613.9178353768825
sg27
g23
sg28
I49
sg29
F17.192952148797605
sba(ibiiots
Biot
p1174
(dp1175
g3
g524
sg8
I5
sg9
F-49.89486264595154
sg10
F11.332159475373341
sg11
F3.0
sg12
I718
sg13
g530
sg18
g536
sg20
g537
sg24
I10
sg25
F197.7470788404855
sg26
F863.232519876572
sg27
g22
sg28
I53
sg29
F11.66117950858577
sba(ibiiots
Biot
p1176
(dp1177
g29
F17.30814093816514
sg8
I5
sg3
g936
sg9
F7.501899795579385
sg10
F10.684647900317662
sg28
I41
sg12
I1413
sg13
g942
sg18
g948
sg20
g949
sg25
F63.63825114112743
sg26
F1156.1296899547694
sg27
g23
sg11
F3.0
sg24
I8
sba(ibiiots
Biot
p1178
(dp1179
g29
F18.809202147228156
sg8
I5
sg3
g574
sg9
F-15.564444451443705
sg10
F11.434160781015468
sg28
I40
sg12
F704.0
sg13
g580
sg18
g586
sg20
g587
sg25
F631.3432442783185
sg26
F236.39268904745003
sg27
g69
sg11
F3.0
sg24
I8
sba(ibiiots
Biot
p1180
(dp1181
g3
g936
sg8
I5
sg9
F29.389791396730164
sg10
F10.684647900317662
sg11
F3.0
sg12
I1478
sg13
g942
sg18
g948
sg20
g949
sg24
I8
sg25
F421.7148688255294
sg26
F1048.4830833277329
sg27
g23
sg28
I41
sg29
F17.30814093816514
sba(ibiiots
Biot
p1182
(dp1183
g29
F28.391854794573767
sg8
I5
sg3
g490
sg9
F-57.5347030492657
sg10
F7.058365415649364
sg28
I48
sg12
I654
sg13
g496
sg18
g502
sg20
g503
sg25
F661.7725976371438
sg26
F644.065435892636
sg27
g23
sg11
F3.0
sg24
I9
sba(ibiiots
Biot
p1184
(dp1185
g29
F22.790812690621898
sg8
I7
sg3
g650
sg9
F-8.751126118487976
sg10
F8.69156045323207
sg28
I54
sg12
I1162
sg13
g658
sg18
g666
sg20
g667
sg25
F507.94759044663493
sg26
F599.0200860016467
sg27
g23
sg11
F3.0
sg24
I10
sba(ibiiots
Biot
p1186
(dp1187
g3
g574
sg8
I5
sg9
F26.940514710214178
sg10
F11.434160781015468
sg11
F3.0
sg12
F1196.0
sg13
g580
sg18
g586
sg20
g587
sg24
I8
sg25
F576.405282676412
sg26
F193.46549890741582
sg27
g69
sg28
I40
sg29
F18.809202147228156
sba(ibiiots
Biot
p1188
(dp1189
g3
g650
sg8
I7
sg9
F18.278514099134508
sg10
F8.69156045323207
sg11
F3.0
sg12
I1275
sg13
g658
sg18
g666
sg20
g667
sg24
I10
sg25
F465.57284086844555
sg26
F437.31480220307924
sg27
g23
sg28
I54
sg29
F22.790812690621898
sba(ibiiots
Biot
p1190
(dp1191
g3
g936
sg8
I5
sg9
F25.4212435287108
sg10
F10.684647900317662
sg11
F3.0
sg12
I1291
sg13
g942
sg18
g948
sg20
g949
sg24
I8
sg25
F610.1551714812922
sg26
F969.0975979989404
sg27
g23
sg28
I41
sg29
F17.30814093816514
sba(ibiiots
Biot
p1192
(dp1193
g3
g350
sg8
I5
sg9
F23.648768615174443
sg10
F9.421721817425752
sg11
F3.0
sg12
I440
sg13
g356
sg18
g362
sg20
g363
sg24
I9
sg25
F505.93910197505727
sg26
F1086.6483530963283
sg27
g22
sg28
I45
sg29
F15.910383804833744
sba(ibiiots
Biot
p1194
(dp1195
g3
g350
sg8
I5
sg9
F-3.1472684311106462
sg10
F9.421721817425752
sg11
F3.0
sg12
I1070
sg13
g356
sg18
g362
sg20
g363
sg24
I9
sg25
F392.4362488990747
sg26
F1038.2395734711956
sg27
g22
sg28
I45
sg29
F15.910383804833744
sba(ibiiots
Biot
p1196
(dp1197
g29
F17.30814093816514
sg8
I5
sg3
g936
sg9
F34.882265017940824
sg10
F10.684647900317662
sg28
I41
sg12
I1029
sg13
g942
sg18
g948
sg20
g949
sg25
F528.9594159002584
sg26
F1165.9599701343063
sg27
g23
sg11
F3.0
sg24
I8
sba(ibiiots
Biot
p1198
(dp1199
g3
g154
sg8
I5
sg9
F-13.929645524444876
sg10
F12.43411372804332
sg11
F3.0
sg12
I1170
sg13
g160
sg18
g166
sg20
g167
sg24
I11
sg25
F330.31137403651843
sg26
F928.1946844977704
sg27
g22
sg28
I58
sg29
F16.775708633330115
sba(ibiiots
Biot
p1200
(dp1201
g3
g350
sg8
I5
sg9
F-16.037726548439913
sg10
F9.421721817425752
sg11
F3.0
sg12
I520
sg13
g356
sg18
g362
sg20
g363
sg24
I9
sg25
F344.30413958158044
sg26
F876.7053620247286
sg27
g22
sg28
I45
sg29
F15.910383804833744
sba(ibiiots
Biot
p1202
(dp1203
g29
F17.30814093816514
sg8
I5
sg3
g936
sg9
F-19.65632228973496
sg10
F10.684647900317662
sg28
I41
sg12
I982
sg13
g942
sg18
g948
sg20
g949
sg25
F389.9020336300132
sg26
F1154.5577937051526
sg27
g23
sg11
F3.0
sg24
I8
sba(ibiiots
Biot
p1204
(dp1205
g29
F13.378831060736816
sg8
I6
sg3
g106
sg9
F1.5120276035646456
sg10
F6.781381912934189
sg28
I49
sg12
F1252.0
sg13
g113
sg18
g120
sg20
g121
sg25
F497.9059319634113
sg26
F1043.3660850874805
sg27
g69
sg11
F3.0
sg24
I9
sba(ibiiots
Biot
p1206
(dp1207
g29
F15.910383804833744
sg8
I5
sg3
g350
sg9
F-2.002394403070158
sg10
F9.421721817425752
sg28
I45
sg12
I1080
sg13
g356
sg18
g362
sg20
g363
sg25
F378.4070967992365
sg26
F855.8665361683885
sg27
g22
sg11
F3.0
sg24
I9
sba(ibiiots
Biot
p1208
(dp1209
g29
F15.910383804833744
sg8
I5
sg3
g350
sg9
F17.675331960528837
sg10
F9.421721817425752
sg28
I45
sg12
I770
sg13
g356
sg18
g362
sg20
g363
sg25
F430.12480690413685
sg26
F835.5021916678111
sg27
g22
sg11
F3.0
sg24
I9
sba(ibiiots
Biot
p1210
(dp1211
g29
F13.378831060736816
sg8
I6
sg3
g106
sg9
F-4.0854107896169465
sg10
F6.781381912934189
sg28
I49
sg12
F1162.0
sg13
g113
sg18
g120
sg20
g121
sg25
F107.614960762842
sg26
F186.77490587188836
sg27
g69
sg11
F3.0
sg24
I9
sba(ibiiots
Biot
p1212
(dp1213
g3
g936
sg8
I5
sg9
F54.858134205838674
sg10
F10.684647900317662
sg11
F3.0
sg12
I1026
sg13
g942
sg18
g948
sg20
g949
sg24
I8
sg25
F671.1247335719481
sg26
F1108.070587336724
sg27
g23
sg28
I41
sg29
F17.30814093816514
sba(ibiiots
Biot
p1214
(dp1215
g29
F15.910383804833744
sg8
I5
sg3
g350
sg9
F-3.7296239937769586
sg10
F9.421721817425752
sg28
I45
sg12
I480
sg13
g356
sg18
g362
sg20
g363
sg25
F337.23791475220924
sg26
F1126.1432789002945
sg27
g22
sg11
F3.0
sg24
I9
sba(ibiiots
Biot
p1216
(dp1217
g3
g154
sg8
I5
sg9
F10.784932149494603
sg10
F12.43411372804332
sg11
F3.0
sg12
I1110
sg13
g160
sg18
g166
sg20
g167
sg24
I11
sg25
F41.75265658339974
sg26
F878.2028625587589
sg27
g22
sg28
I58
sg29
F16.775708633330115
sba(ibiiots
Biot
p1218
(dp1219
g29
F8.00000000000003
sg8
I4
sg3
g560
sg9
F13.007381717054656
sg10
F9.550272568553632
sg28
I42
sg12
I573
sg13
g565
sg18
g570
sg20
g571
sg25
F658.8502137365767
sg26
F613.5835279073771
sg27
g22
sg11
F3.0
sg24
I8
sba(ibiiots
Biot
p1220
(dp1221
g29
F16.775708633330115
sg8
I5
sg3
g154
sg9
F-1.412414629459418
sg10
F12.43411372804332
sg28
I58
sg12
I890
sg13
g160
sg18
g166
sg20
g167
sg25
F82.19326765032442
sg26
F1085.8761369828856
sg27
g22
sg11
F3.0
sg24
I11
sba(ibiiots
Biot
p1222
(dp1223
g29
F12.297550877925882
sg8
I3
sg3
g874
sg9
F-34.40056428085531
sg10
F7.463511482959108
sg28
I46
sg12
I446
sg13
g878
sg18
g882
sg20
g883
sg25
F232.94716812756027
sg26
F847.9806784174871
sg27
g22
sg11
F3.0
sg24
I9
sba(ibiiots
Biot
p1224
(dp1225
g3
g256
sg8
I4
sg9
F-63.26214760491162
sg10
F11.295741670682181
sg11
F3.0
sg12
I684
sg13
g261
sg18
g266
sg20
g267
sg24
I9
sg25
F89.95252318064023
sg26
F877.0720024694966
sg27
g23
sg28
I48
sg29
F26.93236000445876
sba(ibiiots
Biot
p1226
(dp1227
g29
F17.30814093816514
sg8
I5
sg3
g936
sg9
F-11.76962855606786
sg10
F10.684647900317662
sg28
I41
sg12
I808
sg13
g942
sg18
g948
sg20
g949
sg25
F654.5535449931341
sg26
F1141.8671672238581
sg27
g23
sg11
F3.0
sg24
I8
sba(ibiiots
Biot
p1228
(dp1229
g3
g350
sg8
I5
sg9
F22.701507025108448
sg10
F9.421721817425752
sg11
F3.0
sg12
I690
sg13
g356
sg18
g362
sg20
g363
sg24
I9
sg25
F301.68808738863584
sg26
F1062.1539211956765
sg27
g22
sg28
I45
sg29
F15.910383804833744
sba(ibiiots
Biot
p1230
(dp1231
g29
F15.445359979510112
sg8
I4
sg3
g460
sg9
F-53.7760640638074
sg10
F9.252897161359604
sg28
I51
sg12
I511
sg13
g465
sg18
g470
sg20
g471
sg25
F576.6158028976647
sg26
F509.25600780345303
sg27
g48
sg11
F3.0
sg24
I10
sba(ibiiots
Biot
p1232
(dp1233
g3
g936
sg8
I5
sg9
F85.50468937804055
sg10
F10.684647900317662
sg11
F3.0
sg12
I826
sg13
g942
sg18
g948
sg20
g949
sg24
I8
sg25
F472.6287703274257
sg26
F1153.4799448523224
sg27
g23
sg28
I41
sg29
F17.30814093816514
sba(ibiiots
Biot
p1234
(dp1235
g3
g560
sg8
I4
sg9
F-10.309650404136587
sg10
F9.550272568553632
sg11
F3.0
sg12
I469
sg13
g565
sg18
g570
sg20
g571
sg24
I8
sg25
F602.7697073957856
sg26
F99.36566099279881
sg27
g22
sg28
I42
sg29
F8.00000000000003
sba(ibiiots
Biot
p1236
(dp1237
g29
F17.192952148797605
sg8
I7
sg3
g854
sg9
F43.88653277821137
sg10
F8.552112180419323
sg28
I49
sg12
I774
sg13
g862
sg18
g870
sg20
g871
sg25
F178.1825088506367
sg26
F786.8890361658672
sg27
g23
sg11
F3.0
sg24
I9
sba(ibiiots
Biot
p1238
(dp1239
g29
F18.809202147228156
sg8
I5
sg3
g574
sg9
F14.05111032216567
sg10
F11.434160781015468
sg28
I40
sg12
I872
sg13
g580
sg18
g586
sg20
g587
sg25
F543.4375054921293
sg26
F410.2873127268317
sg27
g69
sg11
F3.0
sg24
I8
sba.