(lp0
(ibiiots
Biot
p1
(dp2
S'BodyMatX'
p3
(lp4
(lp5
F-4.071413736331338
aF-3.38574459675169
aF-0.6876069535767207
aF-6.699026581976963
aF-2.439299448549179
aa(lp6
F-8.986799777968368
aF5.528799955622885
aF7.42764410445702
aF-8.554537992224256
aF-8.722140220785112
aa(lp7
F-4.91538604163705
aF8.91454455237457
aF8.115251058033746
aF-1.8555114102472958
aF-6.28284077223594
aa(lp8
F4.071413736331337
aF3.385744596751691
aF0.6876069535767219
aF6.6990265819769625
aF2.4392994485491775
aa(lp9
F8.986799777968368
aF-5.5287999556228975
aF-7.427644104457024
aF8.554537992224251
aF8.722140220785116
aa(lp10
F4.915386041637051
aF-8.91454455237457
aF-8.115251058033746
aF1.855511410247297
aF6.282840772235941
aasS'symmetry'
p11
I6
sS'angleMove'
p12
F63.74559577950216
sS'angleRot'
p13
F7.897401790008113
sS'speed'
p14
F3.0
sS'energy'
p15
I1424
sS'BodyMatY'
p16
(lp17
(lp18
F-8.026430725273377
aF8.338868839690832
aF8.973694706050175
aF-6.010244824794248
aF-8.663129815505922
aa(lp19
F-0.4872676376568421
aF7.101575251358277
aF5.082332442641357
aF2.7964047882221528
aF-2.2190696178720106
aa(lp20
F7.539163087616533
aF-1.237293588332562
aF-3.8913622634088147
aF8.80664961301641
aF6.4440601976339185
aa(lp21
F8.026430725273377
aF-8.338868839690832
aF-8.973694706050175
aF6.010244824794249
aF8.663129815505922
aa(lp22
F0.4872676376568432
aF-7.101575251358268
aF-5.082332442641352
aF-2.7964047882221674
aF2.2190696178719964
aa(lp23
F-7.539163087616533
aF1.237293588332561
aF3.891362263408814
aF-8.80664961301641
aF-6.444060197633918
aasS'angleSeg'
p24
(lp25
F3.8913276128889445
aF6.177803890652412
aF0.20382822242817683
aF4.261436587931675
aF3.696362491624931
asS'color'
p26
(lp27
(I0
I255
I0
tp28
a(I0
I0
I255
tp29
ag28
ag28
a(I255
I0
I0
tp30
asS'segSize'
p31
I9
sS'y'
p32
F42.10992594211109
sS'x'
p33
F485.3691427832807
sS'colorOut'
p34
g30
sS'root'
p35
I46
sS'size'
p36
F18.103248877025912
sba(ibiiots
Biot
p37
(dp38
g3
(lp39
(lp40
F-10.695238279263595
aF3.069243568981867
aF8.815582769831463
aF-10.848779458933043
aF-10.995595295598052
aa(lp41
F-2.57135725829273
aF10.563131349853766
aF6.5791717129324585
aF1.8176865107692417
aF0.3112621008442513
aa(lp42
F10.695238279263595
aF-3.0692435689818844
aF-8.815582769831462
aF10.848779458933043
aF10.995595295598052
aa(lp43
F2.571357258292731
aF-10.563131349853768
aF-6.57917171293246
aF-1.81768651076926
aF-0.31126210084425
aasg11
I4
sg12
F70.6955328780243
sg13
F10.580192795527056
sg14
F3.0
sg15
I920
sg16
(lp44
(lp45
F-2.5713572582927293
aF10.563131349853766
aF6.5791717129324585
aF1.8176865107692424
aF0.31126210084425193
aa(lp46
F10.695238279263595
aF-3.0692435689818667
aF-8.815582769831463
aF10.848779458933043
aF10.995595295598052
aa(lp47
F2.5713572582927307
aF-10.563131349853762
aF-6.57917171293246
aF-1.8176865107692413
aF-0.3112621008442506
aa(lp48
F-10.695238279263595
aF3.0692435689818653
aF8.815582769831462
aF-10.848779458933041
aF-10.995595295598052
aasg24
(lp49
F2.1039534030218907
aF4.193468170528042
aF4.840352485636766
aF2.505901823569773
aF2.368196516993839
asg26
(lp50
(I255
I255
I255
tp51
ag28
ag28
ag28
ag30
asg31
I11
sg32
F367.90692873384415
sg33
F1060.628461244289
sg34
g30
sg35
I59
sg36
F26.561375847728428
sba(ibiiots
Biot
p52
(dp53
g3
(lp54
(lp55
F1.3342796244042128
aF7.418660557354749
aF-6.752975692244959
aF7.488646300514071
aF1.2922003062292646
aa(lp56
F-7.498301749451496
aF-1.116531279321328
aF-0.33807666064833053
aF-6.181561841757659
aF6.191126168752722
aa(lp57
F6.164022125047284
aF-6.302129278033414
aF7.09105235289329
aF-1.3070844587564043
aF-7.483326474981984
aasg11
I3
sg12
F-88.16870870215499
sg13
F7.618169776686869
sg14
F3.0
sg15
I1084
sg16
(lp58
(lp59
F-7.88794636669772
aF2.9939064004656055
aF-4.289209635812724
aF-2.814280829234517
aF7.89494891488102
aa(lp60
F2.788453132862847
aF-7.921701704955639
aF7.992853318529302
aF-5.078217521584286
aF-5.06655274941308
aa(lp61
F5.099493233834865
aF4.9277953044900356
aF-3.7036436827165935
aF7.8924983508188
aF-2.8283961654679324
aasg24
(lp62
F3.5335601393586447
aF1.7467566071734255
aF4.706053564210147
aF2.4898092766695217
aF0.7217713192897999
asg26
(lp63
g28
ag30
ag28
ag30
ag28
asg31
I8
sg32
F386.6076471789888
sg33
F647.6026322318544
sg34
g30
sg35
I44
sg36
F15.296224082240446
sba(ibiiots
Biot
p64
(dp65
g3
(lp66
(lp67
F-7.137530477788934
aF8.315604567774752
aF11.700657729174164
aF-11.848170095470511
aF-10.53720611830288
aa(lp68
F-11.922910557775122
aF-3.334730031979054
aF8.157048728059378
aF-7.572007692035871
aF-0.2961323035511359
aa(lp69
F-4.785380079986186
aF-11.650334599753805
aF-3.543609001114784
aF4.276162403434636
aF10.241073814751742
aa(lp70
F7.137530477788932
aF-8.315604567774756
aF-11.700657729174164
aF11.84817009547051
aF10.53720611830288
aa(lp71
F11.922910557775122
aF3.3347300319790527
aF-8.15704872805938
aF7.572007692035872
aF0.296132303551148
aa(lp72
F4.7853800799861865
aF11.650334599753807
aF3.5436090011147927
aF-4.276162403434645
aF-10.241073814751752
aasg11
I6
sg12
F-103.76351429941147
sg13
F8.6860151983531
sg14
F3.0
sg15
I615
sg16
(lp73
(lp74
F-9.646536097409996
aF-8.651631098954905
aF2.663570668241574
aF-1.9028571645812762
aF5.7417146585667584
aa(lp75
F1.3580146653458964
aF-11.527340352996305
aF-8.801281500330784
aF9.30938770874592
aF11.996345512646487
aa(lp76
F11.004550762755898
aF-2.8757092540414018
aF-11.464852168572357
aF11.212244873327203
aF6.2546308540797355
aa(lp77
F9.646536097409998
aF8.651631098954901
aF-2.6635706682415807
aF1.9028571645812882
aF-5.741714658566757
aa(lp78
F-1.358014665345895
aF11.527340352996305
aF8.801281500330782
aF-9.30938770874592
aF-11.996345512646485
aa(lp79
F-11.004550762755898
aF2.875709254041393
aF11.464852168572355
aF-11.212244873327197
aF-6.254630854079718
aasg24
(lp80
F3.300287078755449
aF1.8976811391471642
aF0.8686526444893425
aF4.074830173940646
aF4.73299236024342
asg26
(lp81
g28
ag51
ag30
ag28
ag28
asg31
I12
sg32
F386.8927040024936
sg33
F921.4687331495593
sg34
g30
sg35
I60
sg36
F20.255921155727563
sba(ibiiots
Biot
p82
(dp83
g3
(lp84
(lp85
F-3.022747475649494
aF4.395993897762635
aF10.975883697153773
aF5.0453785622707565
aF-9.75357721209271
aa(lp86
F-7.64817037058158
aF-10.930489619254722
aF-6.1184042185209915
aF-10.987800997618155
aF0.4721548328695849
aa(lp87
F10.67091784623107
aF6.5344957214920925
aF-4.857479478632786
aF5.942422435347404
aF9.281422379223114
aasg11
I3
sg12
F-349.18399478586014
sg13
F6.327755023725244
sg14
F3.0
sg15
I155
sg16
(lp88
(lp89
F-10.576530513285281
aF-10.08341398787304
aF-0.7279952380023067
aF-9.774669056463175
aF-5.086032989250642
aa(lp90
F7.906041359780381
aF1.2346646035927185
aF-9.141396491717472
aF0.5179085215956967
aF10.989862138070608
aa(lp91
F2.6704891535048905
aF8.848749384280332
aF9.869391729719789
aF9.256760534867466
aF-5.9038291488199715
aasg24
(lp92
F5.2699196591101645
aF4.580423421618844
aF3.4869764031388324
aF4.515044166912317
aF6.081676846066887
asg26
(lp93
g51
ag28
ag28
ag28
ag30
asg31
I11
sg32
F342.9326876042322
sg33
F770.8052848809722
sg34
g30
sg35
I57
sg36
F37.04521379299773
sba(ibiiots
Biot
p94
(dp95
g3
(lp96
(lp97
F0.6383586104306574
aF-2.534674092952088
aF4.911001041067533
aF10.998953642051127
aF-7.558172215884578
aa(lp98
F10.981461573237373
aF-10.703991182849386
aF9.842868930074886
aF-0.15171941210752224
aF7.992123169410642
aa(lp99
F-0.6383586104306561
aF2.534674092952087
aF-4.911001041067523
aF-10.998953642051127
aF7.558172215884586
aa(lp100
F-10.981461573237373
aF10.703991182849387
aF-9.842868930074886
aF0.15171941210752088
aF-7.992123169410634
aasg11
I4
sg12
F-34.05968895358396
sg13
F6.888046680598681
sg14
F3.0
sg15
I1351
sg16
(lp101
(lp102
F10.981461573237373
aF-10.703991182849391
aF9.84286893007489
aF-0.1517194121075229
aF7.992123169410643
aa(lp103
F-0.6383586104306568
aF2.5346740929521063
aF-4.911001041067542
aF-10.998953642051127
aF7.558172215884578
aa(lp104
F-10.981461573237373
aF10.703991182849391
aF-9.842868930074895
aF0.15171941210752157
aF-7.992123169410634
aa(lp105
F0.6383586104306554
aF-2.5346740929521054
aF4.911001041067541
aF10.998953642051127
aF-7.558172215884586
aasg24
(lp106
F1.3477238505270093
aF4.663765608710995
aF1.7524578774725361
aF2.8742480645570967
aF0.532159506090525
asg26
(lp107
g28
ag51
ag28
ag51
ag30
asg31
I11
sg32
F228.07205656880743
sg33
F1143.2097668697936
sg34
g30
sg35
I59
sg36
F19.085631922895324
sba(ibiiots
Biot
p108
(dp109
g3
(lp110
(lp111
F3.7400733144895217
aF10.574469148691424
aF-2.536672546068683
aF-10.961364435725802
aF3.712250001836137
aa(lp112
F10.419673183798807
aF4.224162700392416
aF-9.949936619423138
aF-7.5544712907903095
aF-5.781057322586079
aa(lp113
F9.25304662310944
aF-5.307024418517983
aF-9.870695476633495
aF1.5410928192411182
aF-10.921110571022489
aa(lp114
F1.118687227465452
aF-10.841913906714893
aF-2.358619314445094
aF9.476182603819433
aF-7.837344809422183
aa(lp115
F-7.858066467520793
aF-8.212621088416249
aF6.9295452985863895
aF10.275513608823994
aF1.1481014463720656
aa(lp116
F-10.917535837120028
aF0.600942916399885
aF10.999620964818586
aF3.337173284105352
aF9.269003896046673
aa(lp117
F-5.755878044222385
aF8.961984648165396
aF6.786757693165435
aF-6.114126589473785
aF10.410157358775873
aasg11
I7
sg12
F-30.787561865018773
sg13
F8.915244466364818
sg14
F3.0
sg15
I1265
sg16
(lp118
(lp119
F10.34465328574348
aF-3.029950861544335
aF-10.70351775791592
aF-0.9211350103028251
aF-10.354670440137996
aa(lp120
F3.525678763419047
aF-10.156596353139838
aF-4.690283708845602
aF7.995621521596991
aF-9.358385343261618
aa(lp121
F-5.94820377850011
aF-9.635117634012252
aF4.854829637337138
aF10.891511966778692
aF-1.3150452066377287
aa(lp122
F-10.942967553963854
aF-1.8581988158919398
aF10.744157246128081
aF5.5858717546207535
aF7.718550792617949
aa(lp123
F-7.697453565434825
aF7.317981610943054
aF8.54291530771781
aF-3.926043819785112
aF10.9399206152896
aa(lp124
F1.3443999573043348
aF10.983572625117421
aF-0.09131610111824347
aF-10.481568321193803
aF5.923307080936425
aa(lp125
F9.373892891431964
aF6.378309428527888
aF-8.656784623303261
aF-9.144258091714693
aF-3.5536774988066284
aasg24
(lp126
F5.922564825520718
aF1.1423097215185412
aF2.6667492215717643
aF3.921006789542475
aF2.0898125314990916
asg26
(lp127
g51
ag30
ag28
ag28
ag28
asg31
I11
sg32
F399.5093619878425
sg33
F56.04268231744018
sg34
g30
sg35
I57
sg36
F16.075167105968028
sba(ibiiots
Biot
p128
(dp129
g3
(lp130
(lp131
F-10.986958742661434
aF6.858489556196928
aF-8.67806515599427
aF-4.127284737587511
aF9.606380708197145
aa(lp132
F-5.957217649124988
aF-4.018630137315543
aF-10.19295338897832
aF-10.893939109060069
aF9.444104840154452
aa(lp133
F5.029741093536443
aF-10.877119693512475
aF-1.514888232984057
aF-6.76665437147256
aF-0.16227586804269106
aa(lp134
F10.986958742661434
aF-6.858489556196929
aF8.678065155994268
aF4.127284737587515
aF-9.606380708197143
aa(lp135
F5.957217649125006
aF4.018630137315542
aF10.192953388978326
aF10.893939109060069
aF-9.444104840154454
aa(lp136
F-5.029741093536451
aF10.877119693512475
aF1.5148882329840585
aF6.766654371472561
aF0.16227586804269462
aasg11
I6
sg12
F-12.407203255149293
sg13
F8.283055772695153
sg14
F3.0
sg15
I1495
sg16
(lp137
(lp138
F-0.5354788390361178
aF-8.60006517460988
aF-6.759525512069478
aF-10.196348400034061
aF5.358866455620791
aa(lp139
F9.247245961958281
aF-10.239658774561741
aF4.135662124752862
aF-1.5238407686144644
aF-5.639936503913075
aa(lp140
F9.782724800994394
aF-1.639593599951858
aF10.895187636822342
aF8.672507631419604
aF-10.998802959533869
aa(lp141
F0.5354788390361191
aF8.60006517460988
aF6.75952551206948
aF10.196348400034061
aF-5.358866455620792
aa(lp142
F-9.24724596195827
aF10.239658774561741
aF-4.135662124752852
aF1.523840768614466
aF5.639936503913074
aa(lp143
F-9.78272480099439
aF1.6395935999518592
aF-10.895187636822342
aF-8.672507631419604
aF10.998802959533869
aasg24
(lp144
F4.588334066316319
aF2.3930266255335284
aF3.975278238291684
aF3.450857719332025
aF0.9865946652922531
asg26
(lp145
g28
ag28
ag28
ag30
ag28
asg31
I11
sg32
F364.31215242052514
sg33
F413.6411631771434
sg34
g30
sg35
I58
sg36
F31.104924337022066
sba(ibiiots
Biot
p146
(dp147
g3
(lp148
(lp149
F2.8398388852271594
aF-9.753350616213435
aF6.917238537851307
aF-8.083632155448374
aF9.99754252907257
aa(lp150
F-9.723622612252038
aF2.9651016584905787
aF2.7954880421019093
aF9.139969506324665
aF-5.1907544266597805
aa(lp151
F6.883783727024885
aF6.788248957722861
aF-9.712726579953225
aF-1.056337350876285
aF-4.806788102412779
aasg11
I3
sg12
F9.870432691090434
sg13
F12.059699581291152
sg14
F3.0
sg15
F150.0
sg16
(lp152
(lp153
F-9.588290520523028
aF-2.207295122363348
aF7.221621079125152
aF5.886840508744998
aF-0.22168306066375887
aa(lp154
F2.3347726429999245
aF9.550296966839117
aF-9.601314837378537
aF4.05721054709455
aF-8.547284275260294
aa(lp155
F7.253517877523112
aF-7.343001844475765
aF2.3796937582533864
aF-9.94405105583955
aF8.768967335924051
aasg24
(lp156
F5.284831859930858
aF0.6378270311824304
aF3.1950591312999257
aF1.4898193549233996
aF4.024152174861592
asg26
(lp157
g28
ag51
ag28
ag28
ag29
asg31
I10
sg32
F42.706067893256964
sg33
F634.2701413111074
sg34
g51
sg35
I54
sg36
F13.672325519572528
sba(ibiiots
Biot
p158
(dp159
g3
(lp160
(lp161
F1.5566341279193443
aF6.338201166339325
aF-8.245659835704984
aF-1.1555792472552406
aF-8.856418567161391
aa(lp162
F8.455078597565334
aF8.702671264136983
aF-7.246420865044716
aF-8.307503554458748
aF-3.0415270480165315
aa(lp163
F6.898444469645991
aF2.3644700977976623
aF0.9992389706602753
aF-7.151924307203508
aF5.814891519144851
aa(lp164
F-1.5566341279193354
aF-6.338201166339312
aF8.245659835704984
aF1.1555792472552238
aF8.856418567161395
aa(lp165
F-8.455078597565334
aF-8.702671264136985
aF7.246420865044716
aF8.307503554458748
aF3.0415270480165324
aa(lp166
F-6.898444469645992
aF-2.3644700977976636
aF-0.9992389706602743
aF7.151924307203509
aF-5.814891519144851
aasg11
I6
sg12
F24.04871053276429
sg13
F6.801596860401267
sg14
F3.0
sg15
I780
sg16
(lp167
(lp168
F8.864360675863589
aF6.389617044472605
aF-3.606812148399421
aF-8.925504837448301
aF1.6012027239668798
aa(lp169
F3.08409563875581
aF-2.2942347021097005
aF5.337544814485831
aF-3.4619914345150082
aF8.470484827693385
aa(lp170
F-5.7802650371077835
aF-8.683851746582313
aF8.944356962885246
aF5.463513402933282
aF6.869282103726508
aa(lp171
F-8.86436067586359
aF-6.389617044472616
aF3.6068121483994218
aF8.925504837448303
aF-1.6012027239668627
aa(lp172
F-3.084095638755811
aF2.2942347021096996
aF-5.33754481448583
aF3.461991434515009
aF-8.470484827693385
aa(lp173
F5.780265037107783
aF8.683851746582313
aF-8.944356962885246
aF-5.463513402933282
aF-6.869282103726509
aasg24
(lp174
F1.5499419586143262
aF2.157466986291347
aF5.676154580644571
aF4.6464542311234185
aF6.267361022774041
asg26
(lp175
g29
ag30
ag28
ag28
ag28
asg31
I9
sg32
F622.7631488516034
sg33
F410.73011957365736
sg34
g30
sg35
I45
sg36
F17.175920953939716
sba(ibiiots
Biot
p176
(dp177
g3
(lp178
(lp179
F0.05748653027934864
aF-8.94557477032846
aF3.0972296753330752
aF-4.972769186082329
aF-8.740113598829314
aa(lp180
F-8.999816403618267
aF-0.9882773034239599
aF8.450276228516804
aF7.501437637009995
aF2.1471875278044252
aa(lp181
F-0.05748653027934575
aF8.94557477032846
aF-3.0972296753330744
aF4.972769186082322
aF8.740113598829314
aa(lp182
F8.999816403618267
aF0.988277303423961
aF-8.450276228516804
aF-7.5014376370099995
aF-2.1471875278044323
aasg11
I4
sg12
F40.11739662646901
sg13
F8.563454953150067
sg14
F3.0
sg15
I685
sg16
(lp183
(lp184
F-8.999816403618267
aF-0.9882773034239593
aF8.450276228516802
aF7.501437637009995
aF2.147187527804426
aa(lp185
F-0.057486530279353194
aF8.94557477032846
aF-3.097229675333075
aF4.972769186082329
aF8.740113598829314
aa(lp186
F8.999816403618267
aF0.9882773034239604
aF-8.450276228516804
aF-7.5014376370099995
aF-2.147187527804433
aa(lp187
F0.0574865302793543
aF-8.94557477032846
aF3.097229675333074
aF-4.972769186082322
aF-8.740113598829314
aasg24
(lp188
F2.779450264753846
aF4.246603554578889
aF6.278749448999618
aF5.342033849462739
aF4.597533674820665
asg26
(lp189
g28
ag28
ag28
ag51
ag30
asg31
I9
sg32
F301.76474655646695
sg33
F727.7839309664412
sg34
g30
sg35
I45
sg36
F21.122999975314652
sba(ibiiots
Biot
p190
(dp191
g36
F31.104924337022066
sg11
I6
sg3
g130
sg12
F-107.43278983305254
sg13
F8.283055772695153
sg35
I58
sg15
I1563
sg16
g137
sg24
g144
sg26
g145
sg32
F101.69869734677314
sg33
F74.70826846191858
sg34
g30
sg14
F3.0
sg31
I11
sba(ibiiots
Biot
p192
(dp193
g36
F21.122999975314652
sg11
I4
sg3
g178
sg12
F78.5503080560664
sg13
F8.563454953150067
sg35
I45
sg15
I1385
sg16
g183
sg24
g188
sg26
g189
sg32
F502.7858333463811
sg33
F606.6327184972495
sg34
g30
sg14
F3.0
sg31
I9
sba(ibiiots
Biot
p194
(dp195
g36
F28.45368179595848
sg11
I9
sg3
(lp196
(lp197
F-9.996380163542346
aF-1.839418514303918
aF-0.546396364688045
aF-9.825667581284447
aF-3.8041585982141024
aa(lp198
F-7.830608373326873
aF4.909121730791782
aF-6.836837643989408
aF-8.721905147850215
aF-8.858754225712461
aa(lp199
F-2.000807897713643
aF9.360629359239233
aF-9.928246606681418
aF-3.5370663625584915
aF-9.768240296913493
aa(lp200
F4.765192829742676
aF9.432194478691372
aF-8.37411864193689
aF3.3028050838882503
aF-6.1070581712904515
aa(lp201
F9.301506872943193
aF5.090330974398833
aF-2.9016474966681782
aF8.597257324993887
aF0.4116843450706958
aa(lp202
F9.485542475559557
aF-1.633354965542089
aF3.9285367605113883
aF9.86895731586275
aF6.737795181011417
aa(lp203
F5.231187333799667
aF-7.59277596438746
aF8.920515006624939
aF6.522862497396202
aF9.911216769504552
aa(lp204
F-1.4708984996163108
aF-9.99945270519061
aF9.738485140657591
aF0.12464782285633796
aF8.447069880641774
aa(lp205
F-7.484734577845915
aF-7.727274393697136
aF5.999709846170035
aF-6.3318909533042635
aF3.030445115902065
aasg12
F67.81670073366189
sg13
F9.643634733441136
sg35
I52
sg15
I480
sg16
(lp206
(lp207
F-0.2690420523581929
aF9.829371268256986
aF-9.985061392533133
aF-1.8591010144948652
aF-9.248155349021431
aa(lp208
F6.219451141667011
aF8.712090669424184
aF-7.297783980752607
aF4.8916633767977045
aF-4.639232002004385
aa(lp209
F9.797794025006176
aF3.518326022265204
aF-1.1957923385433262
aF9.353564109303857
aF2.1404395580710527
aa(lp210
F8.791640193693608
aF-3.321702472549881
aF5.465723828621881
aF9.438828241780964
aF7.918575660589127
aa(lp211
F3.671780207554712
aF-8.607469463848004
aF9.569767071620882
aF5.107559739037709
aF9.991522206351927
aa(lp212
F-3.1661465449905304
aF-9.865705831644231
aF9.19600994569442
aF-1.613592729804866
aF7.389324468362405
aa(lp213
F-8.522598141335418
aF-6.507668795707113
aF4.5193375639112485
aF-7.579727227286096
aF1.329579688432304
aa(lp214
F-9.891231349221718
aF-0.10462120557618965
aF-2.27198309086826
aF-9.999223115835408
aF-5.352290204347533
aa(lp215
F-6.631647480015635
aF6.34737980937903
aF-8.000217607151091
aF-7.739971379498999
aF-9.529764026433462
aasg24
(lp216
F3.249546794944635
aF4.662255337116193
aF1.7603247808896902
aF3.089456216659839
aF2.0959038429187578
asg26
(lp217
g28
ag28
ag28
ag51
ag30
asg32
F202.05862893691298
sg33
F450.809266975989
sg34
g30
sg14
F3.0
sg31
I10
sba(ibiiots
Biot
p218
(dp219
g36
F16.075167105968028
sg11
I7
sg3
g110
sg12
F-22.126951755515847
sg13
F8.915244466364818
sg35
I57
sg15
I1730
sg16
g118
sg24
g126
sg26
g127
sg32
F515.6937893546684
sg33
F303.08420830780426
sg34
g30
sg14
F3.0
sg31
I11
sba(ibiiots
Biot
p220
(dp221
g36
F20.255921155727563
sg11
I6
sg3
g66
sg12
F-101.23564313039472
sg13
F8.6860151983531
sg35
I60
sg15
I1150
sg16
g73
sg24
g80
sg26
g81
sg32
F524.4739121309522
sg33
F652.0925394031404
sg34
g30
sg14
F3.0
sg31
I12
sba(ibiiots
Biot
p222
(dp223
g36
F26.561375847728428
sg11
I4
sg3
g39
sg12
F-40.874462534324465
sg13
F10.580192795527056
sg35
I59
sg15
I1320
sg16
g44
sg24
g49
sg26
g50
sg32
F393.9600495427475
sg33
F1173.3760749771866
sg34
g30
sg14
F3.0
sg31
I11
sba(ibiiots
Biot
p224
(dp225
g36
F15.296224082240446
sg11
I3
sg3
g54
sg12
F115.61363733721738
sg13
F7.618169776686869
sg35
I44
sg15
I164
sg16
g58
sg24
g62
sg26
g63
sg32
F83.67914510197451
sg33
F916.2818111579048
sg34
g30
sg14
F3.0
sg31
I8
sba(ibiiots
Biot
p226
(dp227
g36
F31.104924337022066
sg11
I6
sg3
g130
sg12
F-264.5912245809767
sg13
F8.283055772695153
sg35
I58
sg15
I1555
sg16
g137
sg24
g144
sg26
g145
sg32
F661.6923297957554
sg33
F210.31598284033603
sg34
g30
sg14
F3.0
sg31
I11
sba(ibiiots
Biot
p228
(dp229
g36
F17.175920953939716
sg11
I6
sg3
g160
sg12
F15.620292089461802
sg13
F6.801596860401267
sg35
I45
sg15
I1844
sg16
g167
sg24
g174
sg26
g175
sg32
F547.0592466664813
sg33
F1178.0654317792423
sg34
g30
sg14
F3.0
sg31
I9
sba(ibiiots
Biot
p230
(dp231
g36
F18.103248877025912
sg11
I6
sg3
g4
sg12
F-172.05672407952773
sg13
F7.897401790008113
sg35
I46
sg15
I1798
sg16
g17
sg24
g25
sg26
g27
sg32
F205.28703985660192
sg33
F943.2617326235058
sg34
g30
sg14
F3.0
sg31
I9
sba(ibiiots
Biot
p232
(dp233
g3
g130
sg11
I6
sg12
F-114.60160469948002
sg13
F8.283055772695153
sg14
F3.0
sg15
I1113
sg16
g137
sg24
g144
sg26
g145
sg31
I11
sg32
F456.39648581338423
sg33
F36.55873164433558
sg34
g30
sg35
I58
sg36
F31.104924337022066
sba(ibiiots
Biot
p234
(dp235
g36
F27.50649978489145
sg11
I9
sg3
(lp236
(lp237
F7.911198219756799
aF-7.65134366027433
aF9.818007835519758
aF7.937942765352764
aF8.780558882374741
aa(lp238
F10.97304974375739
aF-10.941200707515698
aF4.33247191800597
aF1.185953859662878
aF10.985307650637255
aa(lp239
F8.900489340790159
aF-9.111548345809338
aF-3.180275760004767
aF-6.120956037372255
aF8.049908881071389
aa(lp240
F2.663291057346596
aF-3.018501249518611
aF-9.204937065081245
aF-10.563802577672035
aF1.3478682812804492
aa(lp241
F-4.820090711012507
aF4.486936128326475
aF-10.92250601592604
aF-10.063728488290938
aF-5.984854867208956
aa(lp242
F-10.048098466347652
aF9.892886224987182
aF-7.529313011786257
aF-4.854723993354816
aF-10.517197909078442
aa(lp243
F-10.574489277103392
aF10.669844909792944
aF-0.6130707704385155
aF2.625859812319276
aF-10.12842716365518
aa(lp244
F-6.152959032744905
aF6.454264579189228
aF6.590034097920057
aF8.877774628628057
aF-5.0004527834282895
aa(lp245
F1.1476091255575127
aF-0.781337879177843
aF10.70958877179102
aF10.975680030727077
aF2.46728902800704
aasg12
F102.50611057783448
sg13
F9.732974538396624
sg35
I58
sg15
I56
sg16
(lp246
(lp247
F7.642836039567828
aF-7.902970339839308
aF-4.960516318053257
aF-7.615055131381763
aF6.625842264433258
aa(lp248
F0.7695318843465234
aF-1.1358376106900088
aF-10.11086974892317
aF-10.93588192340932
aF-0.5683448080615976
aa(lp249
F-6.4638447919547675
aF6.1627661599300625
aF-10.530234854471486
aF-9.13968802468422
aF-7.496597028415492
aa(lp250
F-10.672716652467527
aF10.577743152802235
aF-6.022386041088159
aF-3.0669325228915065
aF-10.917108183778252
aa(lp251
F-9.88770577725748
aF10.043276565957877
aF1.3034041322857166
aF4.440874791520404
aF-9.229383089808618
aa(lp252
F-4.476127479259494
aF4.809449255315923
aF8.019317026439731
aF9.870747436154218
aF-3.22312707495005
aa(lp253
F3.029880612899686
aF-2.674772812962923
aF10.98290235914141
aF10.681987654273271
aF4.2912659193449985
aa(lp254
F9.118173892910955
aF-8.907438955267855
aF8.807465616637455
aF6.495007131888921
aF9.797727897870214
aa(lp255
F10.93997227121427
aF-10.972215415245996
aF2.510917828031752
aF-0.7310594114700044
aF10.719724103365538
aasg24
(lp256
F5.560560762244704
aF2.385540397586976
aF0.5133579634199771
aF0.8101624579553285
aF5.6822661205398335
asg26
(lp257
g28
ag28
ag29
ag28
ag30
asg32
F460.01484964585023
sg33
F1072.9368874678094
sg34
g30
sg14
F3.0
sg31
I11
sba(ibiiots
Biot
p258
(dp259
g36
F20.255921155727563
sg11
I6
sg3
g66
sg12
F-177.99876091906742
sg13
F8.6860151983531
sg35
I60
sg15
I965
sg16
g73
sg24
g80
sg26
g81
sg32
F117.35220500380113
sg33
F1011.7912899085376
sg34
g30
sg14
F3.0
sg31
I12
sba(ibiiots
Biot
p260
(dp261
g36
F16.075167105968028
sg11
I7
sg3
g110
sg12
F6.35334055767915
sg13
F8.915244466364818
sg35
I57
sg15
I875
sg16
g118
sg24
g126
sg26
g127
sg32
F405.1199579350662
sg33
F22.280256114170736
sg34
g30
sg14
F3.0
sg31
I11
sba(ibiiots
Biot
p262
(dp263
g3
g110
sg11
I7
sg12
F-35.58485617894804
sg13
F8.915244466364818
sg14
F3.0
sg15
I1085
sg16
g118
sg24
g126
sg26
g127
sg31
I11
sg32
F515.8969610716546
sg33
F144.13947166273863
sg34
g30
sg35
I57
sg36
F16.075167105968028
sba(ibiiots
Biot
p264
(dp265
g36
F21.122999975314652
sg11
I4
sg3
g178
sg12
F4.37382084461384
sg13
F8.563454953150067
sg35
I45
sg15
I1490
sg16
g183
sg24
g188
sg26
g189
sg32
F253.91139857923872
sg33
F1025.5761821479346
sg34
g30
sg14
F3.0
sg31
I9
sba(ibiiots
Biot
p266
(dp267
g3
g130
sg11
I6
sg12
F-185.30334271398786
sg13
F8.283055772695153
sg14
F3.0
sg15
I1069
sg16
g137
sg24
g144
sg26
g145
sg31
I11
sg32
F411.0834088527995
sg33
F463.16722712156684
sg34
g30
sg35
I58
sg36
F31.104924337022066
sba(ibiiots
Biot
p268
(dp269
g3
g196
sg11
I9
sg12
F-127.93411282966935
sg13
F9.643634733441136
sg14
F3.0
sg15
I240
sg16
g206
sg24
g216
sg26
g217
sg31
I10
sg32
F297.29787638153846
sg33
F171.428675032169
sg34
g30
sg35
I52
sg36
F28.45368179595848
sba(ibiiots
Biot
p270
(dp271
g36
F28.45368179595848
sg11
I9
sg3
g196
sg12
F-101.14561763824624
sg13
F9.643634733441136
sg35
I52
sg15
I1150
sg16
g206
sg24
g216
sg26
g217
sg32
F291.8913212676612
sg33
F40.36719488687294
sg34
g30
sg14
F3.0
sg31
I10
sba(ibiiots
Biot
p272
(dp273
g3
g130
sg11
I6
sg12
F-124.27592479913268
sg13
F8.283055772695153
sg14
F3.0
sg15
I1587
sg16
g137
sg24
g144
sg26
g145
sg31
I11
sg32
F41.039545866618
sg33
F33.8574778936386
sg34
g30
sg35
I58
sg36
F31.104924337022066
sba(ibiiots
Biot
p274
(dp275
g3
g66
sg11
I6
sg12
F87.11073463602061
sg13
F8.6860151983531
sg14
F3.0
sg15
I890
sg16
g73
sg24
g80
sg26
g81
sg31
I12
sg32
F617.2781539005691
sg33
F710.2100671329423
sg34
g30
sg35
I60
sg36
F20.255921155727563
sba(ibiiots
Biot
p276
(dp277
g36
F31.104924337022066
sg11
I6
sg3
g130
sg12
F-249.39615309262018
sg13
F8.283055772695153
sg35
I58
sg15
I891
sg16
g137
sg24
g144
sg26
g145
sg32
F558.6995513572368
sg33
F419.5428622755456
sg34
g30
sg14
F3.0
sg31
I11
sba(ibiiots
Biot
p278
(dp279
g3
g39
sg11
I4
sg12
F100.50449193781587
sg13
F10.580192795527056
sg14
F3.0
sg15
I385
sg16
g44
sg24
g49
sg26
g50
sg31
I11
sg32
F478.9624628390532
sg33
F809.2280973375968
sg34
g30
sg35
I59
sg36
F26.561375847728428
sba(ibiiots
Biot
p280
(dp281
g36
F31.104924337022066
sg11
I6
sg3
g130
sg12
F-48.339684735029756
sg13
F8.283055772695153
sg35
I58
sg15
I670
sg16
g137
sg24
g144
sg26
g145
sg32
F174.96513772109247
sg33
F247.13113817907697
sg34
g30
sg14
F3.0
sg31
I11
sba(ibiiots
Biot
p282
(dp283
g36
F26.561375847728428
sg11
I4
sg3
g39
sg12
F-101.91025530473013
sg13
F10.580192795527056
sg35
I59
sg15
I1320
sg16
g44
sg24
g49
sg26
g50
sg32
F616.3149581941342
sg33
F958.3481644416415
sg34
g30
sg14
F3.0
sg31
I11
sba(ibiiots
Biot
p284
(dp285
g36
F17.175920953939716
sg11
I6
sg3
g160
sg12
F134.39926644677675
sg13
F6.801596860401267
sg35
I45
sg15
I446
sg16
g167
sg24
g174
sg26
g175
sg32
F581.39993812476
sg33
F702.0746633868755
sg34
g30
sg14
F3.0
sg31
I9
sba(ibiiots
Biot
p286
(dp287
g36
F15.296224082240446
sg11
I3
sg3
g54
sg12
F109.63276667969399
sg13
F7.618169776686869
sg35
I44
sg15
I816
sg16
g58
sg24
g62
sg26
g63
sg32
F126.32113304776514
sg33
F687.9875950760947
sg34
g30
sg14
F3.0
sg31
I8
sba(ibiiots
Biot
p288
(dp289
g3
g160
sg11
I6
sg12
F-44.21390479980912
sg13
F6.801596860401267
sg14
F3.0
sg15
I1582
sg16
g167
sg24
g174
sg26
g175
sg31
I9
sg32
F573.6394102790739
sg33
F1154.9948868530894
sg34
g30
sg35
I45
sg36
F17.175920953939716
sba(ibiiots
Biot
p290
(dp291
g3
g54
sg11
I3
sg12
F92.53109583017432
sg13
F7.618169776686869
sg14
F3.0
sg15
I1556
sg16
g58
sg24
g62
sg26
g63
sg31
I8
sg32
F266.3927590799809
sg33
F914.8579895142045
sg34
g30
sg35
I44
sg36
F15.296224082240446
sba(ibiiots
Biot
p292
(dp293
g36
F18.103248877025912
sg11
I6
sg3
g4
sg12
F22.11340291495472
sg13
F7.897401790008113
sg35
I46
sg15
I1760
sg16
g17
sg24
g25
sg26
g27
sg32
F397.91303667604393
sg33
F283.45414168422394
sg34
g30
sg14
F3.0
sg31
I9
sba(ibiiots
Biot
p294
(dp295
g3
g4
sg11
I6
sg12
F16.56049383345112
sg13
F7.897401790008113
sg14
F3.0
sg15
I1198
sg16
g17
sg24
g25
sg26
g27
sg31
I9
sg32
F125.3137972542993
sg33
F792.5408203357905
sg34
g30
sg35
I46
sg36
F18.103248877025912
sba(ibiiots
Biot
p296
(dp297
g3
g130
sg11
I6
sg12
F133.79464254692337
sg13
F8.283055772695153
sg14
F3.0
sg15
I643
sg16
g137
sg24
g144
sg26
g145
sg31
I11
sg32
F640.004494860876
sg33
F631.9826602754376
sg34
g30
sg35
I58
sg36
F31.104924337022066
sba(ibiiots
Biot
p298
(dp299
g36
F31.104924337022066
sg11
I6
sg3
g130
sg12
F151.80516939838782
sg13
F8.283055772695153
sg35
I58
sg15
I1450
sg16
g137
sg24
g144
sg26
g145
sg32
F172.86798230017325
sg33
F608.0453557631303
sg34
g30
sg14
F3.0
sg31
I11
sba(ibiiots
Biot
p300
(dp301
g3
g130
sg11
I6
sg12
F52.739691716408466
sg13
F8.283055772695153
sg14
F3.0
sg15
I888
sg16
g137
sg24
g144
sg26
g145
sg31
I11
sg32
F103.57264447180017
sg33
F202.00669032753274
sg34
g30
sg35
I58
sg36
F31.104924337022066
sba(ibiiots
Biot
p302
(dp303
g3
g130
sg11
I6
sg12
F-187.03457960182408
sg13
F8.283055772695153
sg14
F3.0
sg15
I177
sg16
g137
sg24
g144
sg26
g145
sg31
I11
sg32
F595.7191497974504
sg33
F534.2533048715312
sg34
g30
sg35
I58
sg36
F31.104924337022066
sba(ibiiots
Biot
p304
(dp305
g36
F31.104924337022066
sg11
I6
sg3
g130
sg12
F-7.956325511072319
sg13
F8.283055772695153
sg35
I58
sg15
I1812
sg16
g137
sg24
g144
sg26
g145
sg32
F664.650789305861
sg33
F384.7887621064734
sg34
g30
sg14
F3.0
sg31
I11
sba(ibiiots
Biot
p306
(dp307
g36
F31.104924337022066
sg11
I6
sg3
g130
sg12
F182.31301161786064
sg13
F8.283055772695153
sg35
I58
sg15
I1160
sg16
g137
sg24
g144
sg26
g145
sg32
F156.17951494600493
sg33
F104.803081200689
sg34
g30
sg14
F3.0
sg31
I11
sba(ibiiots
Biot
p308
(dp309
g3
g66
sg11
I6
sg12
F-30.586232349523314
sg13
F8.6860151983531
sg14
F3.0
sg15
I1565
sg16
g73
sg24
g80
sg26
g81
sg31
I12
sg32
F105.29817078601504
sg33
F1059.4560705367683
sg34
g30
sg35
I60
sg36
F20.255921155727563
sba(ibiiots
Biot
p310
(dp311
g3
g130
sg11
I6
sg12
F101.36352121930554
sg13
F8.283055772695153
sg14
F3.0
sg15
I1535
sg16
g137
sg24
g144
sg26
g145
sg31
I11
sg32
F158.8459317706843
sg33
F400.62395285824465
sg34
g30
sg35
I58
sg36
F31.104924337022066
sba(ibiiots
Biot
p312
(dp313
g36
F16.075167105968028
sg11
I7
sg3
g110
sg12
F101.22420904675337
sg13
F8.915244466364818
sg35
I57
sg15
I1780
sg16
g118
sg24
g126
sg26
g127
sg32
F503.3155514036973
sg33
F54.20427159335754
sg34
g30
sg14
F3.0
sg31
I11
sba(ibiiots
Biot
p314
(dp315
g3
g110
sg11
I7
sg12
F25.546577959672625
sg13
F8.915244466364818
sg14
F3.0
sg15
I1220
sg16
g118
sg24
g126
sg26
g127
sg31
I11
sg32
F552.8061254018702
sg33
F58.47241480713578
sg34
g30
sg35
I57
sg36
F16.075167105968028
sba(ibiiots
Biot
p316
(dp317
g36
F20.255921155727563
sg11
I6
sg3
g66
sg12
F12.831217552692332
sg13
F8.6860151983531
sg35
I60
sg15
I1180
sg16
g73
sg24
g80
sg26
g81
sg32
F304.96593572961035
sg33
F896.5307669467763
sg34
g30
sg14
F3.0
sg31
I12
sba(ibiiots
Biot
p318
(dp319
g36
F21.122999975314652
sg11
I4
sg3
g178
sg12
F-134.3620653105341
sg13
F8.563454953150067
sg35
I45
sg15
I760
sg16
g183
sg24
g188
sg26
g189
sg32
F343.34586600570606
sg33
F858.404262135799
sg34
g30
sg14
F3.0
sg31
I9
sba(ibiiots
Biot
p320
(dp321
g3
g178
sg11
I4
sg12
F-332.7341069977719
sg13
F8.563454953150067
sg14
F3.0
sg15
I815
sg16
g183
sg24
g188
sg26
g189
sg31
I9
sg32
F481.223857797829
sg33
F665.9169070102485
sg34
g30
sg35
I45
sg36
F21.122999975314652
sba(ibiiots
Biot
p322
(dp323
g36
F16.075167105968028
sg11
I7
sg3
g110
sg12
F-287.18864577821154
sg13
F8.915244466364818
sg35
I57
sg15
I1515
sg16
g118
sg24
g126
sg26
g127
sg32
F453.8270129418658
sg33
F215.57619462215774
sg34
g30
sg14
F3.0
sg31
I11
sba(ibiiots
Biot
p324
(dp325
g3
g66
sg11
I6
sg12
F83.00154931990807
sg13
F8.6860151983531
sg14
F3.0
sg15
I1080
sg16
g73
sg24
g80
sg26
g81
sg31
I12
sg32
F532.0628014310096
sg33
F531.4779350931107
sg34
g30
sg35
I60
sg36
F20.255921155727563
sba(ibiiots
Biot
p326
(dp327
g3
g110
sg11
I7
sg12
F63.204559604182656
sg13
F8.915244466364818
sg14
F3.0
sg15
I1465
sg16
g118
sg24
g126
sg26
g127
sg31
I11
sg32
F512.6538673096348
sg33
F342.578209243513
sg34
g30
sg35
I57
sg36
F16.075167105968028
sba(ibiiots
Biot
p328
(dp329
g36
F27.50649978489145
sg11
I9
sg3
g236
sg12
F-28.249721532156602
sg13
F9.732974538396624
sg35
I58
sg15
I1172
sg16
g246
sg24
g256
sg26
g257
sg32
F124.62776547444747
sg33
F900.2952306258305
sg34
g30
sg14
F3.0
sg31
I11
sba(ibiiots
Biot
p330
(dp331
g3
g196
sg11
I9
sg12
F403.28165474469836
sg13
F9.643634733441136
sg14
F3.0
sg15
I290
sg16
g206
sg24
g216
sg26
g217
sg31
I10
sg32
F288.32227657940496
sg33
F591.1307074747176
sg34
g30
sg35
I52
sg36
F28.45368179595848
sba(ibiiots
Biot
p332
(dp333
g36
F26.561375847728428
sg11
I4
sg3
g39
sg12
F-346.17681546393857
sg13
F10.580192795527056
sg35
I59
sg15
I630
sg16
g44
sg24
g49
sg26
g50
sg32
F200.9244425785647
sg33
F883.8143557481969
sg34
g30
sg14
F3.0
sg31
I11
sba(ibiiots
Biot
p334
(dp335
g3
g39
sg11
I4
sg12
F-227.75427714281457
sg13
F10.580192795527056
sg14
F3.0
sg15
I345
sg16
g44
sg24
g49
sg26
g50
sg31
I11
sg32
F150.1133660384221
sg33
F1105.7263708562639
sg34
g30
sg35
I59
sg36
F26.561375847728428
sba(ibiiots
Biot
p336
(dp337
g36
F20.255921155727563
sg11
I6
sg3
g66
sg12
F60.922907986370284
sg13
F8.6860151983531
sg35
I60
sg15
I1025
sg16
g73
sg24
g80
sg26
g81
sg32
F222.7793280905723
sg33
F829.6099039001467
sg34
g30
sg14
F3.0
sg31
I12
sba(ibiiots
Biot
p338
(dp339
g36
F17.438654844369026
sg11
I4
sg3
(lp340
(lp341
F10.457022627042413
aF6.326506622146521
aF-10.720822535256296
aF-11.93977711177472
aF-10.565403213810715
aa(lp342
F5.886482632058203
aF-10.196828622661872
aF5.3911004597893335
aF-1.200717502637693
aF-5.689662110318866
aa(lp343
F-10.457022627042418
aF-6.326506622146523
aF10.720822535256291
aF11.93977711177472
aF10.565403213810718
aa(lp344
F-5.886482632058204
aF10.196828622661872
aF-5.391100459789341
aF1.200717502637705
aF5.689662110318877
aasg12
F18.42952131493055
sg13
F11.578290707898944
sg35
I60
sg15
I190
sg16
(lp345
(lp346
F5.886482632058212
aF-10.196828622661862
aF5.3911004597893335
aF-1.2007175026377028
aF-5.689662110318875
aa(lp347
F-10.45702262704242
aF-6.326506622146503
aF10.720822535256296
aF11.93977711177472
aF10.565403213810718
aa(lp348
F-5.886482632058204
aF10.196828622661862
aF-5.3911004597893415
aF1.2007175026376937
aF5.689662110318867
aa(lp349
F10.457022627042418
aF6.326506622146505
aF-10.720822535256293
aF-11.93977711177472
aF-10.565403213810713
aasg24
(lp350
F3.970681350276196
aF5.498874733074838
aF1.8077333208106812
aF1.2415707580368334
aF0.8478129650258639
asg26
(lp351
g28
ag29
ag51
ag28
ag30
asg32
F78.08887245284957
sg33
F787.7912687190443
sg34
g30
sg14
F3.0
sg31
I12
sba(ibiiots
Biot
p352
(dp353
g36
F26.561375847728428
sg11
I4
sg3
g39
sg12
F-1.8656024964177211
sg13
F10.580192795527056
sg35
I59
sg15
I715
sg16
g44
sg24
g49
sg26
g50
sg32
F354.68307050472566
sg33
F1004.881542033022
sg34
g30
sg14
F3.0
sg31
I11
sba(ibiiots
Biot
p354
(dp355
g36
F21.122999975314652
sg11
I4
sg3
g178
sg12
F-52.04115964718788
sg13
F8.563454953150067
sg35
I45
sg15
I1815
sg16
g183
sg24
g188
sg26
g189
sg32
F449.5596863175929
sg33
F1003.0759013907019
sg34
g30
sg14
F3.0
sg31
I9
sba(ibiiots
Biot
p356
(dp357
g3
g178
sg11
I4
sg12
F96.18416839895185
sg13
F8.563454953150067
sg14
F3.0
sg15
I610
sg16
g183
sg24
g188
sg26
g189
sg31
I9
sg32
F476.76775597458095
sg33
F1124.3556056060947
sg34
g30
sg35
I45
sg36
F21.122999975314652
sba(ibiiots
Biot
p358
(dp359
g3
g130
sg11
I6
sg12
F225.4567487843049
sg13
F8.283055772695153
sg14
F3.0
sg15
I861
sg16
g137
sg24
g144
sg26
g145
sg31
I11
sg32
F441.1005904519712
sg33
F260.83359195740434
sg34
g30
sg35
I58
sg36
F31.104924337022066
sba(ibiiots
Biot
p360
(dp361
g3
g236
sg11
I9
sg12
F89.06293559303951
sg13
F9.732974538396624
sg14
F3.0
sg15
I366
sg16
g246
sg24
g256
sg26
g257
sg31
I11
sg32
F540.3093146015608
sg33
F1029.216316348449
sg34
g30
sg35
I58
sg36
F27.50649978489145
sba(ibiiots
Biot
p362
(dp363
g3
g130
sg11
I6
sg12
F65.70429934398011
sg13
F8.283055772695153
sg14
F3.0
sg15
I1320
sg16
g137
sg24
g144
sg26
g145
sg31
I11
sg32
F361.8802799561328
sg33
F244.52914818581485
sg34
g30
sg35
I58
sg36
F31.104924337022066
sba(ibiiots
Biot
p364
(dp365
g3
g130
sg11
I6
sg12
F84.13964600581527
sg13
F8.283055772695153
sg14
F3.0
sg15
I818
sg16
g137
sg24
g144
sg26
g145
sg31
I11
sg32
F433.6991596594415
sg33
F643.2109043185511
sg34
g30
sg35
I58
sg36
F31.104924337022066
sba(ibiiots
Biot
p366
(dp367
g36
F31.104924337022066
sg11
I6
sg3
g130
sg12
F17.85642269762395
sg13
F8.283055772695153
sg35
I58
sg15
I708
sg16
g137
sg24
g144
sg26
g145
sg32
F404.6218159153701
sg33
F529.8237881292907
sg34
g30
sg14
F3.0
sg31
I11
sba(ibiiots
Biot
p368
(dp369
g36
F31.104924337022066
sg11
I6
sg3
g130
sg12
F135.26919097127458
sg13
F8.283055772695153
sg35
I58
sg15
I1652
sg16
g137
sg24
g144
sg26
g145
sg32
F47.304210372343434
sg33
F101.28788369388333
sg34
g30
sg14
F3.0
sg31
I11
sba(ibiiots
Biot
p370
(dp371
g36
F31.104924337022066
sg11
I6
sg3
g130
sg12
F203.93162749752
sg13
F8.283055772695153
sg35
I58
sg15
I621
sg16
g137
sg24
g144
sg26
g145
sg32
F287.4990801707552
sg33
F107.5334563741722
sg34
g30
sg14
F3.0
sg31
I11
sba(ibiiots
Biot
p372
(dp373
g3
g130
sg11
I6
sg12
F-168.6658900249855
sg13
F8.283055772695153
sg14
F3.0
sg15
I864
sg16
g137
sg24
g144
sg26
g145
sg31
I11
sg32
F227.61313939910875
sg33
F640.2732933224154
sg34
g30
sg35
I58
sg36
F31.104924337022066
sba(ibiiots
Biot
p374
(dp375
g3
g54
sg11
I3
sg12
F-137.91435276574026
sg13
F7.618169776686869
sg14
F3.0
sg15
I1294
sg16
g58
sg24
g62
sg26
g63
sg31
I8
sg32
F16.79232327946364
sg33
F959.2103399812764
sg34
g30
sg35
I44
sg36
F15.296224082240446
sba(ibiiots
Biot
p376
(dp377
g36
F31.104924337022066
sg11
I6
sg3
g130
sg12
F-84.95176108706384
sg13
F8.283055772695153
sg35
I58
sg15
I1209
sg16
g137
sg24
g144
sg26
g145
sg32
F663.8075442432637
sg33
F868.8947663825245
sg34
g30
sg14
F3.0
sg31
I11
sba(ibiiots
Biot
p378
(dp379
g3
g130
sg11
I6
sg12
F55.956014454722975
sg13
F8.283055772695153
sg14
F3.0
sg15
I984
sg16
g137
sg24
g144
sg26
g145
sg31
I11
sg32
F490.9800154342046
sg33
F458.63680307334175
sg34
g30
sg35
I58
sg36
F31.104924337022066
sba(ibiiots
Biot
p380
(dp381
g36
F31.104924337022066
sg11
I6
sg3
g130
sg12
F119.24529156924366
sg13
F8.283055772695153
sg35
I58
sg15
I1778
sg16
g137
sg24
g144
sg26
g145
sg32
F463.1360298581603
sg33
F517.1347079505497
sg34
g30
sg14
F3.0
sg31
I11
sba(ibiiots
Biot
p382
(dp383
g36
F31.104924337022066
sg11
I6
sg3
g130
sg12
F-211.71056074962098
sg13
F8.283055772695153
sg35
I58
sg15
I1217
sg16
g137
sg24
g144
sg26
g145
sg32
F37.62795992938055
sg33
F299.3876019357333
sg34
g30
sg14
F3.0
sg31
I11
sba(ibiiots
Biot
p384
(dp385
g3
g130
sg11
I6
sg12
F-54.44731685888175
sg13
F8.283055772695153
sg14
F3.0
sg15
I1822
sg16
g137
sg24
g144
sg26
g145
sg31
I11
sg32
F271.87787245578846
sg33
F451.944932558909
sg34
g30
sg35
I58
sg36
F31.104924337022066
sba(ibiiots
Biot
p386
(dp387
g36
F15.296224082240446
sg11
I3
sg3
g54
sg12
F-91.48088712334166
sg13
F7.618169776686869
sg35
I44
sg15
I1058
sg16
g58
sg24
g62
sg26
g63
sg32
F24.990191510364742
sg33
F846.6917993586773
sg34
g30
sg14
F3.0
sg31
I8
sba(ibiiots
Biot
p388
(dp389
g3
g160
sg11
I6
sg12
F46.435694421111975
sg13
F6.801596860401267
sg14
F3.0
sg15
I780
sg16
g167
sg24
g174
sg26
g175
sg31
I9
sg32
F523.8243206092657
sg33
F787.6979601430448
sg34
g30
sg35
I45
sg36
F17.175920953939716
sba(ibiiots
Biot
p390
(dp391
g3
g4
sg11
I6
sg12
F-24.34055581272768
sg13
F7.897401790008113
sg14
F3.0
sg15
I1260
sg16
g17
sg24
g25
sg26
g27
sg31
I9
sg32
F50.13007219590726
sg33
F905.1564913158227
sg34
g30
sg35
I46
sg36
F18.103248877025912
sba(ibiiots
Biot
p392
(dp393
g36
F31.104924337022066
sg11
I6
sg3
g130
sg12
F7.6670973250328895
sg13
F8.283055772695153
sg35
I58
sg15
I1500
sg16
g137
sg24
g144
sg26
g145
sg32
F140.09774295186043
sg33
F499.6283555782039
sg34
g30
sg14
F3.0
sg31
I11
sba(ibiiots
Biot
p394
(dp395
g3
g130
sg11
I6
sg12
F155.2620692814086
sg13
F8.283055772695153
sg14
F3.0
sg15
I1602
sg16
g137
sg24
g144
sg26
g145
sg31
I11
sg32
F96.57076942874552
sg33
F340.8695732758905
sg34
g30
sg35
I58
sg36
F31.104924337022066
sba(ibiiots
Biot
p396
(dp397
g36
F31.104924337022066
sg11
I6
sg3
g130
sg12
F-270.10458899430455
sg13
F8.283055772695153
sg35
I58
sg15
I630
sg16
g137
sg24
g144
sg26
g145
sg32
F667.0530505228348
sg33
F686.6564723379839
sg34
g30
sg14
F3.0
sg31
I11
sba(ibiiots
Biot
p398
(dp399
g36
F19.085631922895324
sg11
I4
sg3
g96
sg12
F-58.902617521350045
sg13
F6.888046680598681
sg35
I59
sg15
I191
sg16
g101
sg24
g106
sg26
g107
sg32
F27.95822260548287
sg33
F1107.3953976932678
sg34
g30
sg14
F3.0
sg31
I11
sba(ibiiots
Biot
p400
(dp401
g3
g110
sg11
I7
sg12
F93.2457025792565
sg13
F8.915244466364818
sg14
F3.0
sg15
I1025
sg16
g118
sg24
g126
sg26
g127
sg31
I11
sg32
F668.2982078338968
sg33
F57.409748914230846
sg34
g30
sg35
I57
sg36
F16.075167105968028
sba(ibiiots
Biot
p402
(dp403
g36
F16.075167105968028
sg11
I7
sg3
g110
sg12
F-158.57222084865825
sg13
F8.915244466364818
sg35
I57
sg15
I1160
sg16
g118
sg24
g126
sg26
g127
sg32
F578.9355896871804
sg33
F165.65240054939338
sg34
g30
sg14
F3.0
sg31
I11
sba(ibiiots
Biot
p404
(dp405
g3
g130
sg11
I6
sg12
F70.58846096619307
sg13
F8.283055772695153
sg14
F3.0
sg15
I1572
sg16
g137
sg24
g144
sg26
g145
sg31
I11
sg32
F358.96398566515904
sg33
F316.5170383348234
sg34
g30
sg35
I58
sg36
F31.104924337022066
sba(ibiiots
Biot
p406
(dp407
g3
g66
sg11
I6
sg12
F42.97181983283225
sg13
F8.6860151983531
sg14
F3.0
sg15
I1325
sg16
g73
sg24
g80
sg26
g81
sg31
I12
sg32
F266.33479571839126
sg33
F1163.1759722681343
sg34
g30
sg35
I60
sg36
F20.255921155727563
sba(ibiiots
Biot
p408
(dp409
g3
g110
sg11
I7
sg12
F29.132325284106212
sg13
F8.915244466364818
sg14
F3.0
sg15
I1095
sg16
g118
sg24
g126
sg26
g127
sg31
I11
sg32
F640.9355604679123
sg33
F31.150837975730333
sg34
g30
sg35
I57
sg36
F16.075167105968028
sba(ibiiots
Biot
p410
(dp411
g3
g110
sg11
I7
sg12
F-50.133552452337995
sg13
F8.915244466364818
sg14
F3.0
sg15
I1890
sg16
g118
sg24
g126
sg26
g127
sg31
I11
sg32
F332.0676972184023
sg33
F356.31031936837013
sg34
g30
sg35
I57
sg36
F16.075167105968028
sba(ibiiots
Biot
p412
(dp413
g36
F16.075167105968028
sg11
I7
sg3
g110
sg12
F-16.579460075317403
sg13
F8.915244466364818
sg35
I57
sg15
I1735
sg16
g118
sg24
g126
sg26
g127
sg32
F196.77546312128288
sg33
F298.8858768712362
sg34
g30
sg14
F3.0
sg31
I11
sba(ibiiots
Biot
p414
(dp415
g3
g54
sg11
I3
sg12
F-42.70947832518184
sg13
F7.618169776686869
sg14
F3.0
sg15
I1218
sg16
g58
sg24
g62
sg26
g63
sg31
I8
sg32
F460.4909468317275
sg33
F872.1097588673796
sg34
g30
sg35
I44
sg36
F15.296224082240446
sba(ibiiots
Biot
p416
(dp417
g3
g39
sg11
I4
sg12
F-19.701566669649708
sg13
F10.580192795527056
sg14
F3.0
sg15
I1200
sg16
g44
sg24
g49
sg26
g50
sg31
I11
sg32
F615.3174212182745
sg33
F1169.6577234577585
sg34
g30
sg35
I59
sg36
F26.561375847728428
sba(ibiiots
Biot
p418
(dp419
g36
F16.075167105968028
sg11
I7
sg3
g110
sg12
F-51.868189748724376
sg13
F8.915244466364818
sg35
I57
sg15
I1585
sg16
g118
sg24
g126
sg26
g127
sg32
F587.0772405863179
sg33
F84.2349509784855
sg34
g30
sg14
F3.0
sg31
I11
sba(ibiiots
Biot
p420
(dp421
g36
F18.103248877025912
sg11
I6
sg3
g4
sg12
F-88.3203860386229
sg13
F7.897401790008113
sg35
I46
sg15
I1598
sg16
g17
sg24
g25
sg26
g27
sg32
F27.748839536705532
sg33
F520.2757822949937
sg34
g30
sg14
F3.0
sg31
I9
sba(ibiiots
Biot
p422
(dp423
g36
F21.122999975314652
sg11
I4
sg3
g178
sg12
F119.88048993859705
sg13
F8.563454953150067
sg35
I45
sg15
I820
sg16
g183
sg24
g188
sg26
g189
sg32
F352.54608096826917
sg33
F956.8254933742815
sg34
g30
sg14
F3.0
sg31
I9
sba(ibiiots
Biot
p424
(dp425
g36
F15.296224082240446
sg11
I3
sg3
g54
sg12
F28.356390885752045
sg13
F7.618169776686869
sg35
I44
sg15
I1464
sg16
g58
sg24
g62
sg26
g63
sg32
F320.527300401863
sg33
F436.74674909615777
sg34
g30
sg14
F3.0
sg31
I8
sba(ibiiots
Biot
p426
(dp427
g3
g110
sg11
I7
sg12
F154.88083001160572
sg13
F8.915244466364818
sg14
F3.0
sg15
I1480
sg16
g118
sg24
g126
sg26
g127
sg31
I11
sg32
F644.6400693081506
sg33
F150.43128453700567
sg34
g30
sg35
I57
sg36
F16.075167105968028
sba(ibiiots
Biot
p428
(dp429
g3
g130
sg11
I6
sg12
F-37.63114788935594
sg13
F8.283055772695153
sg14
F3.0
sg15
I1628
sg16
g137
sg24
g144
sg26
g145
sg31
I11
sg32
F619.9389194044679
sg33
F265.29661762943965
sg34
g30
sg35
I58
sg36
F31.104924337022066
sba(ibiiots
Biot
p430
(dp431
g36
F16.075167105968028
sg11
I7
sg3
g110
sg12
F130.7975985981498
sg13
F8.915244466364818
sg35
I57
sg15
I1735
sg16
g118
sg24
g126
sg26
g127
sg32
F590.1510439082432
sg33
F310.0134478399547
sg34
g30
sg14
F3.0
sg31
I11
sba(ibiiots
Biot
p432
(dp433
g36
F20.255921155727563
sg11
I6
sg3
g66
sg12
F26.546891964271353
sg13
F8.6860151983531
sg35
I60
sg15
I765
sg16
g73
sg24
g80
sg26
g81
sg32
F77.60148881938208
sg33
F1091.8145737424875
sg34
g30
sg14
F3.0
sg31
I12
sba(ibiiots
Biot
p434
(dp435
g36
F31.104924337022066
sg11
I6
sg3
g130
sg12
F93.62787663365876
sg13
F8.283055772695153
sg35
I58
sg15
I602
sg16
g137
sg24
g144
sg26
g145
sg32
F96.09584112980342
sg33
F136.41920990856624
sg34
g30
sg14
F3.0
sg31
I11
sba(ibiiots
Biot
p436
(dp437
g3
g96
sg11
I4
sg12
F23.16688137149663
sg13
F6.888046680598681
sg14
F3.0
sg15
I724
sg16
g101
sg24
g106
sg26
g107
sg31
I11
sg32
F21.85729031509179
sg33
F1039.8724068558365
sg34
g30
sg35
I59
sg36
F19.085631922895324
sba(ibiiots
Biot
p438
(dp439
g36
F20.255921155727563
sg11
I6
sg3
g66
sg12
F16.035621020662735
sg13
F8.6860151983531
sg35
I60
sg15
I1895
sg16
g73
sg24
g80
sg26
g81
sg32
F413.7402460455159
sg33
F1028.8370413414993
sg34
g30
sg14
F3.0
sg31
I12
sba(ibiiots
Biot
p440
(dp441
g3
g130
sg11
I6
sg12
F215.96306286878723
sg13
F8.283055772695153
sg14
F3.0
sg15
I1779
sg16
g137
sg24
g144
sg26
g145
sg31
I11
sg32
F354.95826692602435
sg33
F35.185844742650865
sg34
g30
sg35
I58
sg36
F31.104924337022066
sba(ibiiots
Biot
p442
(dp443
g3
g66
sg11
I6
sg12
F143.9492001793248
sg13
F8.6860151983531
sg14
F3.0
sg15
I1065
sg16
g73
sg24
g80
sg26
g81
sg31
I12
sg32
F177.28540735266756
sg33
F1146.7231211849125
sg34
g30
sg35
I60
sg36
F20.255921155727563
sba(ibiiots
Biot
p444
(dp445
g3
g66
sg11
I6
sg12
F124.55067363632357
sg13
F8.6860151983531
sg14
F3.0
sg15
I1195
sg16
g73
sg24
g80
sg26
g81
sg31
I12
sg32
F483.5540666784795
sg33
F759.3061982704829
sg34
g30
sg35
I60
sg36
F20.255921155727563
sba(ibiiots
Biot
p446
(dp447
g36
F17.175920953939716
sg11
I6
sg3
g160
sg12
F-80.18741712542021
sg13
F6.801596860401267
sg35
I45
sg15
I1028
sg16
g167
sg24
g174
sg26
g175
sg32
F478.96839418838806
sg33
F960.7324845075632
sg34
g30
sg14
F3.0
sg31
I9
sba(ibiiots
Biot
p448
(dp449
g36
F21.122999975314652
sg11
I4
sg3
g178
sg12
F-22.108944001439944
sg13
F8.563454953150067
sg35
I45
sg15
I940
sg16
g183
sg24
g188
sg26
g189
sg32
F352.1702201977743
sg33
F901.0479367724879
sg34
g30
sg14
F3.0
sg31
I9
sba(ibiiots
Biot
p450
(dp451
g36
F20.255921155727563
sg11
I6
sg3
g66
sg12
F54.562803976314704
sg13
F8.6860151983531
sg35
I60
sg15
I810
sg16
g73
sg24
g80
sg26
g81
sg32
F540.7351206302554
sg33
F735.8574763700509
sg34
g30
sg14
F3.0
sg31
I12
sba(ibiiots
Biot
p452
(dp453
g36
F31.104924337022066
sg11
I6
sg3
g130
sg12
F45.55977023718147
sg13
F8.283055772695153
sg35
I58
sg15
I804
sg16
g137
sg24
g144
sg26
g145
sg32
F289.26842729394906
sg33
F667.00262161169
sg34
g30
sg14
F3.0
sg31
I11
sba(ibiiots
Biot
p454
(dp455
g36
F20.255921155727563
sg11
I6
sg3
g66
sg12
F-13.979660572139355
sg13
F8.6860151983531
sg35
I60
sg15
I960
sg16
g73
sg24
g80
sg26
g81
sg32
F610.9988651261383
sg33
F838.0231315551347
sg34
g30
sg14
F3.0
sg31
I12
sba(ibiiots
Biot
p456
(dp457
g3
g178
sg11
I4
sg12
F-19.800639310189922
sg13
F8.563454953150067
sg14
F3.0
sg15
I615
sg16
g183
sg24
g188
sg26
g189
sg31
I9
sg32
F399.3231011747518
sg33
F780.1952738858241
sg34
g30
sg35
I45
sg36
F21.122999975314652
sba(ibiiots
Biot
p458
(dp459
g36
F31.104924337022066
sg11
I6
sg3
g130
sg12
F-11.956801974934955
sg13
F8.283055772695153
sg35
I58
sg15
I623
sg16
g137
sg24
g144
sg26
g145
sg32
F354.53050542027245
sg33
F102.27483544923025
sg34
g30
sg14
F3.0
sg31
I11
sba(ibiiots
Biot
p460
(dp461
g3
g130
sg11
I6
sg12
F-55.00753138539921
sg13
F8.283055772695153
sg14
F3.0
sg15
I786
sg16
g137
sg24
g144
sg26
g145
sg31
I11
sg32
F544.4299527155777
sg33
F481.6412958199274
sg34
g30
sg35
I58
sg36
F31.104924337022066
sba(ibiiots
Biot
p462
(dp463
g36
F26.561375847728428
sg11
I4
sg3
g39
sg12
F61.31003452433855
sg13
F10.580192795527056
sg35
I59
sg15
I1585
sg16
g44
sg24
g49
sg26
g50
sg32
F447.112137659651
sg33
F1167.7627901409296
sg34
g30
sg14
F3.0
sg31
I11
sba(ibiiots
Biot
p464
(dp465
g36
F18.103248877025912
sg11
I6
sg3
g4
sg12
F-13.953796855781405
sg13
F7.897401790008113
sg35
I46
sg15
I1086
sg16
g17
sg24
g25
sg26
g27
sg32
F153.0917692791088
sg33
F820.3481396551575
sg34
g30
sg14
F3.0
sg31
I9
sba(ibiiots
Biot
p466
(dp467
g3
g130
sg11
I6
sg12
F-56.87707495523686
sg13
F8.283055772695153
sg14
F3.0
sg15
I1917
sg16
g137
sg24
g144
sg26
g145
sg31
I11
sg32
F34.781324081454045
sg33
F572.8232720369597
sg34
g30
sg35
I58
sg36
F31.104924337022066
sba(ibiiots
Biot
p468
(dp469
g36
F28.45368179595848
sg11
I9
sg3
g196
sg12
F-139.66857058265353
sg13
F9.643634733441136
sg35
I52
sg15
I380
sg16
g206
sg24
g216
sg26
g217
sg32
F178.87804998136195
sg33
F543.0735402103995
sg34
g30
sg14
F3.0
sg31
I10
sba(ibiiots
Biot
p470
(dp471
g3
g130
sg11
I6
sg12
F-356.80670517804884
sg13
F8.283055772695153
sg14
F3.0
sg15
I1213
sg16
g137
sg24
g144
sg26
g145
sg31
I11
sg32
F443.5172982611076
sg33
F711.8332341519133
sg34
g30
sg35
I58
sg36
F31.104924337022066
sba(ibiiots
Biot
p472
(dp473
g3
g178
sg11
I4
sg12
F-85.06328660618405
sg13
F8.563454953150067
sg14
F3.0
sg15
I1560
sg16
g183
sg24
g188
sg26
g189
sg31
I9
sg32
F392.5165696799683
sg33
F603.3093109695277
sg34
g30
sg35
I45
sg36
F21.122999975314652
sba(ibiiots
Biot
p474
(dp475
g3
g160
sg11
I6
sg12
F-197.29167863484315
sg13
F6.801596860401267
sg14
F3.0
sg15
I230
sg16
g167
sg24
g174
sg26
g175
sg31
I9
sg32
F570.9729146997895
sg33
F1098.8086079154434
sg34
g30
sg35
I45
sg36
F17.175920953939716
sba(ibiiots
Biot
p476
(dp477
g3
g130
sg11
I6
sg12
F222.78144401580053
sg13
F8.283055772695153
sg14
F3.0
sg15
I1209
sg16
g137
sg24
g144
sg26
g145
sg31
I11
sg32
F606.4435385817469
sg33
F464.05129513304854
sg34
g30
sg35
I58
sg36
F31.104924337022066
sba(ibiiots
Biot
p478
(dp479
g3
g178
sg11
I4
sg12
F98.06381447956697
sg13
F8.563454953150067
sg14
F3.0
sg15
I1105
sg16
g183
sg24
g188
sg26
g189
sg31
I9
sg32
F140.56813652649032
sg33
F953.3275216868587
sg34
g30
sg35
I45
sg36
F21.122999975314652
sba(ibiiots
Biot
p480
(dp481
g3
g4
sg11
I6
sg12
F-27.257820557195693
sg13
F7.897401790008113
sg14
F3.0
sg15
I24
sg16
g17
sg24
g25
sg26
g27
sg31
I9
sg32
F485.94298394243856
sg33
F362.3715964020384
sg34
g30
sg35
I46
sg36
F18.103248877025912
sba(ibiiots
Biot
p482
(dp483
g36
F31.104924337022066
sg11
I6
sg3
g130
sg12
F64.48467089959195
sg13
F8.283055772695153
sg35
I58
sg15
I736
sg16
g137
sg24
g144
sg26
g145
sg32
F577.1282724561612
sg33
F651.9154539781686
sg34
g30
sg14
F3.0
sg31
I11
sba(ibiiots
Biot
p484
(dp485
g3
g178
sg11
I4
sg12
F47.52348279318446
sg13
F8.563454953150067
sg14
F3.0
sg15
I1190
sg16
g183
sg24
g188
sg26
g189
sg31
I9
sg32
F214.85799395122157
sg33
F1044.17433530966
sg34
g30
sg35
I45
sg36
F21.122999975314652
sba(ibiiots
Biot
p486
(dp487
g36
F31.104924337022066
sg11
I6
sg3
g130
sg12
F48.05036787409474
sg13
F8.283055772695153
sg35
I58
sg15
I889
sg16
g137
sg24
g144
sg26
g145
sg32
F341.2504421754464
sg33
F621.2472169999522
sg34
g30
sg14
F3.0
sg31
I11
sba(ibiiots
Biot
p488
(dp489
g36
F21.122999975314652
sg11
I4
sg3
g178
sg12
F31.491679034853615
sg13
F8.563454953150067
sg35
I45
sg15
I910
sg16
g183
sg24
g188
sg26
g189
sg32
F641.9492357867051
sg33
F1080.1629521871052
sg34
g30
sg14
F3.0
sg31
I9
sba(ibiiots
Biot
p490
(dp491
g3
g66
sg11
I6
sg12
F60.14645274419709
sg13
F8.6860151983531
sg14
F3.0
sg15
I1435
sg16
g73
sg24
g80
sg26
g81
sg31
I12
sg32
F268.66123706480107
sg33
F971.3732090366426
sg34
g30
sg35
I60
sg36
F20.255921155727563
sba(ibiiots
Biot
p492
(dp493
g36
F31.104924337022066
sg11
I6
sg3
g130
sg12
F58.42327012300566
sg13
F8.283055772695153
sg35
I58
sg15
I1613
sg16
g137
sg24
g144
sg26
g145
sg32
F299.82798098972114
sg33
F394.68624214374194
sg34
g30
sg14
F3.0
sg31
I11
sba(ibiiots
Biot
p494
(dp495
g36
F31.104924337022066
sg11
I6
sg3
g130
sg12
F-41.69947831694232
sg13
F8.283055772695153
sg35
I58
sg15
I1639
sg16
g137
sg24
g144
sg26
g145
sg32
F39.14121737150189
sg33
F367.1471473276559
sg34
g30
sg14
F3.0
sg31
I11
sba(ibiiots
Biot
p496
(dp497
g3
g130
sg11
I6
sg12
F83.0659816468812
sg13
F8.283055772695153
sg14
F3.0
sg15
I1427
sg16
g137
sg24
g144
sg26
g145
sg31
I11
sg32
F595.1405308727949
sg33
F772.0364149786366
sg34
g30
sg35
I58
sg36
F31.104924337022066
sba(ibiiots
Biot
p498
(dp499
g36
F31.104924337022066
sg11
I6
sg3
g130
sg12
F68.62642213812713
sg13
F8.283055772695153
sg35
I58
sg15
I765
sg16
g137
sg24
g144
sg26
g145
sg32
F420.3344564508572
sg33
F325.25455896599425
sg34
g30
sg14
F3.0
sg31
I11
sba(ibiiots
Biot
p500
(dp501
g36
F31.104924337022066
sg11
I6
sg3
g130
sg12
F145.34569659492934
sg13
F8.283055772695153
sg35
I58
sg15
I808
sg16
g137
sg24
g144
sg26
g145
sg32
F342.03402770951993
sg33
F548.6577704228628
sg34
g30
sg14
F3.0
sg31
I11
sba(ibiiots
Biot
p502
(dp503
g3
g196
sg11
I9
sg12
F71.18583859199609
sg13
F9.643634733441136
sg14
F3.0
sg15
I350
sg16
g206
sg24
g216
sg26
g217
sg31
I10
sg32
F119.66695268962788
sg33
F578.2115915726042
sg34
g30
sg35
I52
sg36
F28.45368179595848
sba(ibiiots
Biot
p504
(dp505
g3
g130
sg11
I6
sg12
F-95.79832789793011
sg13
F8.283055772695153
sg14
F3.0
sg15
I792
sg16
g137
sg24
g144
sg26
g145
sg31
I11
sg32
F509.1566811120724
sg33
F877.8427103284461
sg34
g30
sg35
I58
sg36
F31.104924337022066
sba(ibiiots
Biot
p506
(dp507
g3
g39
sg11
I4
sg12
F-136.90340457632698
sg13
F10.580192795527056
sg14
F3.0
sg15
I1480
sg16
g44
sg24
g49
sg26
g50
sg31
I11
sg32
F305.21088980365874
sg33
F1112.687469152756
sg34
g30
sg35
I59
sg36
F26.561375847728428
sba(ibiiots
Biot
p508
(dp509
g36
F31.104924337022066
sg11
I6
sg3
g130
sg12
F55.70835205089772
sg13
F8.283055772695153
sg35
I58
sg15
I1806
sg16
g137
sg24
g144
sg26
g145
sg32
F251.71766903487932
sg33
F329.2663680284393
sg34
g30
sg14
F3.0
sg31
I11
sba(ibiiots
Biot
p510
(dp511
g36
F28.45368179595848
sg11
I9
sg3
g196
sg12
F-26.02846486836814
sg13
F9.643634733441136
sg35
I52
sg15
I45
sg16
g206
sg24
g216
sg26
g217
sg32
F144.3231633799139
sg33
F302.3112131205919
sg34
g30
sg14
F3.0
sg31
I10
sba(ibiiots
Biot
p512
(dp513
g36
F15.296224082240446
sg11
I3
sg3
g54
sg12
F-14.984384432325198
sg13
F7.618169776686869
sg35
I44
sg15
I1032
sg16
g58
sg24
g62
sg26
g63
sg32
F174.86954648584765
sg33
F927.5658206490491
sg34
g30
sg14
F3.0
sg31
I8
sba(ibiiots
Biot
p514
(dp515
g36
F26.561375847728428
sg11
I4
sg3
g39
sg12
F-102.71738372564113
sg13
F10.580192795527056
sg35
I59
sg15
I430
sg16
g44
sg24
g49
sg26
g50
sg32
F404.461180707274
sg33
F976.9440506394036
sg34
g30
sg14
F3.0
sg31
I11
sba(ibiiots
Biot
p516
(dp517
g3
g130
sg11
I6
sg12
F-46.13549850454068
sg13
F8.283055772695153
sg14
F3.0
sg15
I1759
sg16
g137
sg24
g144
sg26
g145
sg31
I11
sg32
F157.7234442934444
sg33
F166.54605159602494
sg34
g30
sg35
I58
sg36
F31.104924337022066
sba(ibiiots
Biot
p518
(dp519
g36
F31.104924337022066
sg11
I6
sg3
g130
sg12
F168.1201564632732
sg13
F8.283055772695153
sg35
I58
sg15
I605
sg16
g137
sg24
g144
sg26
g145
sg32
F174.98817512133675
sg33
F676.2784790906549
sg34
g30
sg14
F3.0
sg31
I11
sba(ibiiots
Biot
p520
(dp521
g3
g130
sg11
I6
sg12
F-105.91295083388371
sg13
F8.283055772695153
sg14
F3.0
sg15
I1847
sg16
g137
sg24
g144
sg26
g145
sg31
I11
sg32
F154.64831778600578
sg33
F40.36147375057135
sg34
g30
sg35
I58
sg36
F31.104924337022066
sba(ibiiots
Biot
p522
(dp523
g36
F16.075167105968028
sg11
I7
sg3
g110
sg12
F-47.401852741493116
sg13
F8.915244466364818
sg35
I57
sg15
I1295
sg16
g118
sg24
g126
sg26
g127
sg32
F625.5355832986193
sg33
F178.71913005035887
sg34
g30
sg14
F3.0
sg31
I11
sba(ibiiots
Biot
p524
(dp525
g3
g110
sg11
I7
sg12
F28.789540744647645
sg13
F8.915244466364818
sg14
F3.0
sg15
I960
sg16
g118
sg24
g126
sg26
g127
sg31
I11
sg32
F418.84159280769774
sg33
F191.84418892585657
sg34
g30
sg35
I57
sg36
F16.075167105968028
sba(ibiiots
Biot
p526
(dp527
g36
F20.255921155727563
sg11
I6
sg3
g66
sg12
F-167.9229524018428
sg13
F8.6860151983531
sg35
I60
sg15
I445
sg16
g73
sg24
g80
sg26
g81
sg32
F139.52330956571984
sg33
F1173.5799536696213
sg34
g30
sg14
F3.0
sg31
I12
sba(ibiiots
Biot
p528
(dp529
g36
F16.075167105968028
sg11
I7
sg3
g110
sg12
F27.34501196864514
sg13
F8.915244466364818
sg35
I57
sg15
I1480
sg16
g118
sg24
g126
sg26
g127
sg32
F579.0208181695153
sg33
F199.04274308607413
sg34
g30
sg14
F3.0
sg31
I11
sba(ibiiots
Biot
p530
(dp531
g36
F15.296224082240446
sg11
I3
sg3
g54
sg12
F29.913972639682616
sg13
F7.618169776686869
sg35
I44
sg15
I1306
sg16
g58
sg24
g62
sg26
g63
sg32
F53.72748231773717
sg33
F819.5251820749193
sg34
g30
sg14
F3.0
sg31
I8
sba(ibiiots
Biot
p532
(dp533
g3
g110
sg11
I7
sg12
F41.5944969303887
sg13
F8.915244466364818
sg14
F3.0
sg15
I1645
sg16
g118
sg24
g126
sg26
g127
sg31
I11
sg32
F486.35211803330327
sg33
F287.81635317671544
sg34
g30
sg35
I57
sg36
F16.075167105968028
sba(ibiiots
Biot
p534
(dp535
g3
g110
sg11
I7
sg12
F-96.56615846192615
sg13
F8.915244466364818
sg14
F3.0
sg15
I1825
sg16
g118
sg24
g126
sg26
g127
sg31
I11
sg32
F554.804921218535
sg33
F19.63786770286969
sg34
g30
sg35
I57
sg36
F16.075167105968028
sba(ibiiots
Biot
p536
(dp537
g36
F16.075167105968028
sg11
I7
sg3
g110
sg12
F-14.991823513540819
sg13
F8.915244466364818
sg35
I57
sg15
I1445
sg16
g118
sg24
g126
sg26
g127
sg32
F645.9635725683256
sg33
F93.4512905291833
sg34
g30
sg14
F3.0
sg31
I11
sba(ibiiots
Biot
p538
(dp539
g3
g110
sg11
I7
sg12
F48.0052670753592
sg13
F8.915244466364818
sg14
F3.0
sg15
I1715
sg16
g118
sg24
g126
sg26
g127
sg31
I11
sg32
F552.648673451133
sg33
F144.76422076550466
sg34
g30
sg35
I57
sg36
F16.075167105968028
sba(ibiiots
Biot
p540
(dp541
g36
F21.122999975314652
sg11
I4
sg3
g178
sg12
F197.7456244451227
sg13
F8.563454953150067
sg35
I45
sg15
I1475
sg16
g183
sg24
g188
sg26
g189
sg32
F506.4137539173581
sg33
F1175.3138010817368
sg34
g30
sg14
F3.0
sg31
I9
sba(ibiiots
Biot
p542
(dp543
g3
g110
sg11
I7
sg12
F75.95107274952167
sg13
F8.915244466364818
sg14
F3.0
sg15
I880
sg16
g118
sg24
g126
sg26
g127
sg31
I11
sg32
F501.5335238670686
sg33
F199.90701997782423
sg34
g30
sg35
I57
sg36
F16.075167105968028
sba(ibiiots
Biot
p544
(dp545
g36
F31.104924337022066
sg11
I6
sg3
g130
sg12
F-18.640735585738142
sg13
F8.283055772695153
sg35
I58
sg15
I1094
sg16
g137
sg24
g144
sg26
g145
sg32
F467.2151408656139
sg33
F163.4912043861949
sg34
g30
sg14
F3.0
sg31
I11
sba(ibiiots
Biot
p546
(dp547
g3
g196
sg11
I9
sg12
F29.856345563704203
sg13
F9.643634733441136
sg14
F3.0
sg15
I820
sg16
g206
sg24
g216
sg26
g217
sg31
I10
sg32
F233.69223352643075
sg33
F259.314037352026
sg34
g30
sg35
I52
sg36
F28.45368179595848
sba(ibiiots
Biot
p548
(dp549
g3
g4
sg11
I6
sg12
F164.9496165069358
sg13
F7.897401790008113
sg14
F3.0
sg15
I1710
sg16
g17
sg24
g25
sg26
g27
sg31
I9
sg32
F95.80068017049247
sg33
F1176.8038671662323
sg34
g30
sg35
I46
sg36
F18.103248877025912
sba(ibiiots
Biot
p550
(dp551
g36
F16.075167105968028
sg11
I7
sg3
g110
sg12
F217.84144248836972
sg13
F8.915244466364818
sg35
I57
sg15
I1035
sg16
g118
sg24
g126
sg26
g127
sg32
F584.4636519617482
sg33
F114.81711338826837
sg34
g30
sg14
F3.0
sg31
I11
sba(ibiiots
Biot
p552
(dp553
g3
g130
sg11
I6
sg12
F-46.82410539035205
sg13
F8.283055772695153
sg14
F3.0
sg15
I575
sg16
g137
sg24
g144
sg26
g145
sg31
I11
sg32
F452.61292738615623
sg33
F578.521098633418
sg34
g30
sg35
I58
sg36
F31.104924337022066
sba(ibiiots
Biot
p554
(dp555
g3
g54
sg11
I3
sg12
F-34.84997262794098
sg13
F7.618169776686869
sg14
F3.0
sg15
I1424
sg16
g58
sg24
g62
sg26
g63
sg31
I8
sg32
F42.110816641393676
sg33
F788.7509911433317
sg34
g30
sg35
I44
sg36
F15.296224082240446
sba(ibiiots
Biot
p556
(dp557
g36
F31.104924337022066
sg11
I6
sg3
g130
sg12
F24.740553554832847
sg13
F8.283055772695153
sg35
I58
sg15
I1015
sg16
g137
sg24
g144
sg26
g145
sg32
F572.7207639099717
sg33
F358.51880392845317
sg34
g30
sg14
F3.0
sg31
I11
sba(ibiiots
Biot
p558
(dp559
g3
g54
sg11
I3
sg12
F-4.951961940921633
sg13
F7.618169776686869
sg14
F3.0
sg15
I1744
sg16
g58
sg24
g62
sg26
g63
sg31
I8
sg32
F173.47772691647435
sg33
F742.2707043096624
sg34
g30
sg35
I44
sg36
F15.296224082240446
sba(ibiiots
Biot
p560
(dp561
g3
g66
sg11
I6
sg12
F82.8717733754378
sg13
F8.6860151983531
sg14
F3.0
sg15
I720
sg16
g73
sg24
g80
sg26
g81
sg31
I12
sg32
F53.981592071271834
sg33
F948.3348604196856
sg34
g30
sg35
I60
sg36
F20.255921155727563
sba(ibiiots
Biot
p562
(dp563
g3
g130
sg11
I6
sg12
F126.5130551311039
sg13
F8.283055772695153
sg14
F3.0
sg15
I653
sg16
g137
sg24
g144
sg26
g145
sg31
I11
sg32
F665.117423715042
sg33
F447.0520758872329
sg34
g30
sg35
I58
sg36
F31.104924337022066
sba(ibiiots
Biot
p564
(dp565
g3
g130
sg11
I6
sg12
F77.0281145626899
sg13
F8.283055772695153
sg14
F3.0
sg15
I956
sg16
g137
sg24
g144
sg26
g145
sg31
I11
sg32
F225.371965742937
sg33
F508.8828129773501
sg34
g30
sg35
I58
sg36
F31.104924337022066
sba(ibiiots
Biot
p566
(dp567
g36
F31.104924337022066
sg11
I6
sg3
g130
sg12
F130.90753405556316
sg13
F8.283055772695153
sg35
I58
sg15
I1209
sg16
g137
sg24
g144
sg26
g145
sg32
F287.06178666593826
sg33
F230.24650996005576
sg34
g30
sg14
F3.0
sg31
I11
sba(ibiiots
Biot
p568
(dp569
g3
g130
sg11
I6
sg12
F228.8604809732289
sg13
F8.283055772695153
sg14
F3.0
sg15
I1028
sg16
g137
sg24
g144
sg26
g145
sg31
I11
sg32
F118.89872465917645
sg33
F640.6041549434597
sg34
g30
sg35
I58
sg36
F31.104924337022066
sba(ibiiots
Biot
p570
(dp571
g36
F21.122999975314652
sg11
I4
sg3
g178
sg12
F257.1782155543276
sg13
F8.563454953150067
sg35
I45
sg15
I1425
sg16
g183
sg24
g188
sg26
g189
sg32
F387.96951819383924
sg33
F822.680758149324
sg34
g30
sg14
F3.0
sg31
I9
sba(ibiiots
Biot
p572
(dp573
g36
F16.075167105968028
sg11
I7
sg3
g110
sg12
F206.39785929658842
sg13
F8.915244466364818
sg35
I57
sg15
I1965
sg16
g118
sg24
g126
sg26
g127
sg32
F299.29955507919664
sg33
F339.1837027805404
sg34
g30
sg14
F3.0
sg31
I11
sba(ibiiots
Biot
p574
(dp575
g3
g110
sg11
I7
sg12
F-149.0688869803585
sg13
F8.915244466364818
sg14
F3.0
sg15
I930
sg16
g118
sg24
g126
sg26
g127
sg31
I11
sg32
F471.0648956634103
sg33
F328.8405263439297
sg34
g30
sg35
I57
sg36
F16.075167105968028
sba(ibiiots
Biot
p576
(dp577
g36
F16.075167105968028
sg11
I7
sg3
g110
sg12
F44.37405983931673
sg13
F8.915244466364818
sg35
I57
sg15
I1190
sg16
g118
sg24
g126
sg26
g127
sg32
F326.2155647050608
sg33
F208.40399262275412
sg34
g30
sg14
F3.0
sg31
I11
sba(ibiiots
Biot
p578
(dp579
g3
g130
sg11
I6
sg12
F123.42701875711874
sg13
F8.283055772695153
sg14
F3.0
sg15
I1138
sg16
g137
sg24
g144
sg26
g145
sg31
I11
sg32
F220.53479034619173
sg33
F188.29278438462424
sg34
g30
sg35
I58
sg36
F31.104924337022066
sba(ibiiots
Biot
p580
(dp581
g3
g130
sg11
I6
sg12
F-74.85335291477949
sg13
F8.283055772695153
sg14
F3.0
sg15
I1354
sg16
g137
sg24
g144
sg26
g145
sg31
I11
sg32
F77.64622084920836
sg33
F529.8031932853495
sg34
g30
sg35
I58
sg36
F31.104924337022066
sba(ibiiots
Biot
p582
(dp583
g36
F31.104924337022066
sg11
I6
sg3
g130
sg12
F-104.28853378690224
sg13
F8.283055772695153
sg35
I58
sg15
I940
sg16
g137
sg24
g144
sg26
g145
sg32
F44.350957781108455
sg33
F742.4682482899842
sg34
g30
sg14
F3.0
sg31
I11
sba(ibiiots
Biot
p584
(dp585
g3
g110
sg11
I7
sg12
F-170.83276277632442
sg13
F8.915244466364818
sg14
F3.0
sg15
I1310
sg16
g118
sg24
g126
sg26
g127
sg31
I11
sg32
F501.2197958772435
sg33
F404.6640109034898
sg34
g30
sg35
I57
sg36
F16.075167105968028
sba(ibiiots
Biot
p586
(dp587
g36
F16.075167105968028
sg11
I7
sg3
g110
sg12
F-128.7915767516455
sg13
F8.915244466364818
sg35
I57
sg15
I800
sg16
g118
sg24
g126
sg26
g127
sg32
F548.1416030044251
sg33
F249.06132657148197
sg34
g30
sg14
F3.0
sg31
I11
sba(ibiiots
Biot
p588
(dp589
g36
F18.103248877025912
sg11
I6
sg3
g4
sg12
F219.15593688848313
sg13
F7.897401790008113
sg35
I46
sg15
I1048
sg16
g17
sg24
g25
sg26
g27
sg32
F100.00769287211511
sg33
F946.0615510813552
sg34
g30
sg14
F3.0
sg31
I9
sba(ibiiots
Biot
p590
(dp591
g3
g178
sg11
I4
sg12
F-31.58631846645999
sg13
F8.563454953150067
sg14
F3.0
sg15
I1565
sg16
g183
sg24
g188
sg26
g189
sg31
I9
sg32
F302.20227386750776
sg33
F942.2145009407236
sg34
g30
sg35
I45
sg36
F21.122999975314652
sba(ibiiots
Biot
p592
(dp593
g3
g66
sg11
I6
sg12
F72.35344945908251
sg13
F8.6860151983531
sg14
F3.0
sg15
I1520
sg16
g73
sg24
g80
sg26
g81
sg31
I12
sg32
F65.13819711714656
sg33
F1132.5691581079768
sg34
g30
sg35
I60
sg36
F20.255921155727563
sba(ibiiots
Biot
p594
(dp595
g36
F26.561375847728428
sg11
I4
sg3
g39
sg12
F-1.4105277348392247
sg13
F10.580192795527056
sg35
I59
sg15
I1120
sg16
g44
sg24
g49
sg26
g50
sg32
F321.57627094442284
sg33
F1168.5161017017485
sg34
g30
sg14
F3.0
sg31
I11
sba(ibiiots
Biot
p596
(dp597
g36
F31.104924337022066
sg11
I6
sg3
g130
sg12
F26.70156947489228
sg13
F8.283055772695153
sg35
I58
sg15
I315
sg16
g137
sg24
g144
sg26
g145
sg32
F86.2212202487782
sg33
F464.8548501143216
sg34
g30
sg14
F3.0
sg31
I11
sba(ibiiots
Biot
p598
(dp599
g36
F20.255921155727563
sg11
I6
sg3
g66
sg12
F54.5492509371212
sg13
F8.6860151983531
sg35
I60
sg15
I1840
sg16
g73
sg24
g80
sg26
g81
sg32
F430.37803157125563
sg33
F934.1733079792881
sg34
g30
sg14
F3.0
sg31
I12
sba(ibiiots
Biot
p600
(dp601
g36
F31.104924337022066
sg11
I6
sg3
g130
sg12
F57.74890916722746
sg13
F8.283055772695153
sg35
I58
sg15
I1389
sg16
g137
sg24
g144
sg26
g145
sg32
F228.30521040630776
sg33
F396.6689254953341
sg34
g30
sg14
F3.0
sg31
I11
sba(ibiiots
Biot
p602
(dp603
g36
F16.075167105968028
sg11
I7
sg3
g110
sg12
F83.36798740372046
sg13
F8.915244466364818
sg35
I57
sg15
I1070
sg16
g118
sg24
g126
sg26
g127
sg32
F369.5142649172971
sg33
F366.32401022747285
sg34
g30
sg14
F3.0
sg31
I11
sba(ibiiots
Biot
p604
(dp605
g3
g66
sg11
I6
sg12
F-2.5118691260725754
sg13
F8.6860151983531
sg14
F3.0
sg15
I1050
sg16
g73
sg24
g80
sg26
g81
sg31
I12
sg32
F535.5086269458603
sg33
F694.6947518801061
sg34
g30
sg35
I60
sg36
F20.255921155727563
sba(ibiiots
Biot
p606
(dp607
g3
g130
sg11
I6
sg12
F-4.719188527068553
sg13
F8.283055772695153
sg14
F3.0
sg15
I1239
sg16
g137
sg24
g144
sg26
g145
sg31
I11
sg32
F639.9768032786244
sg33
F327.4195180182833
sg34
g30
sg35
I58
sg36
F31.104924337022066
sba(ibiiots
Biot
p608
(dp609
g36
F20.255921155727563
sg11
I6
sg3
g66
sg12
F-7.026010659980931
sg13
F8.6860151983531
sg35
I60
sg15
I1045
sg16
g73
sg24
g80
sg26
g81
sg32
F479.45697288714206
sg33
F920.695924765633
sg34
g30
sg14
F3.0
sg31
I12
sba(ibiiots
Biot
p610
(dp611
g36
F20.255921155727563
sg11
I6
sg3
g66
sg12
F34.74195397921044
sg13
F8.6860151983531
sg35
I60
sg15
I1595
sg16
g73
sg24
g80
sg26
g81
sg32
F107.05532346119743
sg33
F1135.9015496715524
sg34
g30
sg14
F3.0
sg31
I12
sba(ibiiots
Biot
p612
(dp613
g3
g130
sg11
I6
sg12
F129.01517412173519
sg13
F8.283055772695153
sg14
F3.0
sg15
I1709
sg16
g137
sg24
g144
sg26
g145
sg31
I11
sg32
F32.4887038856786
sg33
F231.66352931076497
sg34
g30
sg35
I58
sg36
F31.104924337022066
sba(ibiiots
Biot
p614
(dp615
g3
g66
sg11
I6
sg12
F-96.08621567765199
sg13
F8.6860151983531
sg14
F3.0
sg15
I730
sg16
g73
sg24
g80
sg26
g81
sg31
I12
sg32
F411.236990060852
sg33
F1075.5809640002872
sg34
g30
sg35
I60
sg36
F20.255921155727563
sba(ibiiots
Biot
p616
(dp617
g3
g110
sg11
I7
sg12
F12.59221803441803
sg13
F8.915244466364818
sg14
F3.0
sg15
I1565
sg16
g118
sg24
g126
sg26
g127
sg31
I11
sg32
F151.0509855385163
sg33
F451.80159459110627
sg34
g30
sg35
I57
sg36
F16.075167105968028
sba(ibiiots
Biot
p618
(dp619
g36
F31.104924337022066
sg11
I6
sg3
g130
sg12
F-85.22112844536072
sg13
F8.283055772695153
sg35
I58
sg15
I1412
sg16
g137
sg24
g144
sg26
g145
sg32
F351.66872495632083
sg33
F482.35822743467475
sg34
g30
sg14
F3.0
sg31
I11
sba(ibiiots
Biot
p620
(dp621
g36
F26.561375847728428
sg11
I4
sg3
g39
sg12
F20.826783151197173
sg13
F10.580192795527056
sg35
I59
sg15
I380
sg16
g44
sg24
g49
sg26
g50
sg32
F523.7886004706833
sg33
F1091.7970923109274
sg34
g30
sg14
F3.0
sg31
I11
sba(ibiiots
Biot
p622
(dp623
g36
F21.122999975314652
sg11
I4
sg3
g178
sg12
F-217.74409808138924
sg13
F8.563454953150067
sg35
I45
sg15
I825
sg16
g183
sg24
g188
sg26
g189
sg32
F674.1994526899226
sg33
F1125.5354718267936
sg34
g30
sg14
F3.0
sg31
I9
sba(ibiiots
Biot
p624
(dp625
g36
F31.104924337022066
sg11
I6
sg3
g130
sg12
F69.65193613872607
sg13
F8.283055772695153
sg35
I58
sg15
I1333
sg16
g137
sg24
g144
sg26
g145
sg32
F485.389404566579
sg33
F100.75120838698066
sg34
g30
sg14
F3.0
sg31
I11
sba(ibiiots
Biot
p626
(dp627
g36
F20.255921155727563
sg11
I6
sg3
g66
sg12
F-270.2002755354411
sg13
F8.6860151983531
sg35
I60
sg15
I1090
sg16
g73
sg24
g80
sg26
g81
sg32
F504.39528744505157
sg33
F564.7447540273012
sg34
g30
sg14
F3.0
sg31
I12
sba(ibiiots
Biot
p628
(dp629
g36
F21.122999975314652
sg11
I4
sg3
g178
sg12
F9.738959129037074
sg13
F8.563454953150067
sg35
I45
sg15
I1065
sg16
g183
sg24
g188
sg26
g189
sg32
F407.84836523411104
sg33
F1119.9283045855273
sg34
g30
sg14
F3.0
sg31
I9
sba(ibiiots
Biot
p630
(dp631
g36
F20.255921155727563
sg11
I6
sg3
g66
sg12
F-207.03587464355437
sg13
F8.6860151983531
sg35
I60
sg15
I770
sg16
g73
sg24
g80
sg26
g81
sg32
F211.2539269604708
sg33
F1105.5103906329225
sg34
g30
sg14
F3.0
sg31
I12
sba(ibiiots
Biot
p632
(dp633
g3
g130
sg11
I6
sg12
F103.33529475535077
sg13
F8.283055772695153
sg14
F3.0
sg15
I1158
sg16
g137
sg24
g144
sg26
g145
sg31
I11
sg32
F607.728546554097
sg33
F900.9886148942302
sg34
g30
sg35
I58
sg36
F31.104924337022066
sba(ibiiots
Biot
p634
(dp635
g3
g130
sg11
I6
sg12
F-146.05989612691863
sg13
F8.283055772695153
sg14
F3.0
sg15
I1134
sg16
g137
sg24
g144
sg26
g145
sg31
I11
sg32
F96.8811861316062
sg33
F263.6688811405051
sg34
g30
sg35
I58
sg36
F31.104924337022066
sba(ibiiots
Biot
p636
(dp637
g3
g66
sg11
I6
sg12
F30.806667201556607
sg13
F8.6860151983531
sg14
F3.0
sg15
I1245
sg16
g73
sg24
g80
sg26
g81
sg31
I12
sg32
F317.9230833137639
sg33
F1047.7578776806272
sg34
g30
sg35
I60
sg36
F20.255921155727563
sba(ibiiots
Biot
p638
(dp639
g3
g4
sg11
I6
sg12
F15.721141651456517
sg13
F7.897401790008113
sg14
F3.0
sg15
I926
sg16
g17
sg24
g25
sg26
g27
sg31
I9
sg32
F76.83402628905249
sg33
F611.1921848164219
sg34
g30
sg35
I46
sg36
F18.103248877025912
sba(ibiiots
Biot
p640
(dp641
g3
g66
sg11
I6
sg12
F24.249237160705576
sg13
F8.6860151983531
sg14
F3.0
sg15
I1235
sg16
g73
sg24
g80
sg26
g81
sg31
I12
sg32
F562.3500457059799
sg33
F870.1804742441735
sg34
g30
sg35
I60
sg36
F20.255921155727563
sba(ibiiots
Biot
p642
(dp643
g36
F16.075167105968028
sg11
I7
sg3
g110
sg12
F2.8925778797821082
sg13
F8.915244466364818
sg35
I57
sg15
I1240
sg16
g118
sg24
g126
sg26
g127
sg32
F528.6617315665848
sg33
F79.04726739013574
sg34
g30
sg14
F3.0
sg31
I11
sba(ibiiots
Biot
p644
(dp645
g36
F18.103248877025912
sg11
I6
sg3
g4
sg12
F-86.00346232862374
sg13
F7.897401790008113
sg35
I46
sg15
I1388
sg16
g17
sg24
g25
sg26
g27
sg32
F18.943844241926843
sg33
F682.0149635766253
sg34
g30
sg14
F3.0
sg31
I9
sba(ibiiots
Biot
p646
(dp647
g3
g130
sg11
I6
sg12
F-36.3594672207049
sg13
F8.283055772695153
sg14
F3.0
sg15
I739
sg16
g137
sg24
g144
sg26
g145
sg31
I11
sg32
F262.66332748081027
sg33
F771.7523192242996
sg34
g30
sg35
I58
sg36
F31.104924337022066
sba(ibiiots
Biot
p648
(dp649
g3
g178
sg11
I4
sg12
F65.36319576909452
sg13
F8.563454953150067
sg14
F3.0
sg15
I775
sg16
g183
sg24
g188
sg26
g189
sg31
I9
sg32
F489.56742683212576
sg33
F1031.5083989116406
sg34
g30
sg35
I45
sg36
F21.122999975314652
sba(ibiiots
Biot
p650
(dp651
g36
F16.075167105968028
sg11
I7
sg3
g110
sg12
F5.488385465736444
sg13
F8.915244466364818
sg35
I57
sg15
I925
sg16
g118
sg24
g126
sg26
g127
sg32
F679.3161396995766
sg33
F87.95195174367491
sg34
g30
sg14
F3.0
sg31
I11
sba(ibiiots
Biot
p652
(dp653
g36
F31.104924337022066
sg11
I6
sg3
g130
sg12
F158.9271773302497
sg13
F8.283055772695153
sg35
I58
sg15
I399
sg16
g137
sg24
g144
sg26
g145
sg32
F93.73763628468019
sg33
F405.08737061995987
sg34
g30
sg14
F3.0
sg31
I11
sba(ibiiots
Biot
p654
(dp655
g36
F20.255921155727563
sg11
I6
sg3
g66
sg12
F-71.35702029454076
sg13
F8.6860151983531
sg35
I60
sg15
I545
sg16
g73
sg24
g80
sg26
g81
sg32
F441.0361596444921
sg33
F770.8093829223407
sg34
g30
sg14
F3.0
sg31
I12
sba(ibiiots
Biot
p656
(dp657
g36
F31.104924337022066
sg11
I6
sg3
g130
sg12
F176.04070763995242
sg13
F8.283055772695153
sg35
I58
sg15
I691
sg16
g137
sg24
g144
sg26
g145
sg32
F216.85908231492596
sg33
F727.9551165557083
sg34
g30
sg14
F3.0
sg31
I11
sba(ibiiots
Biot
p658
(dp659
g36
F17.175920953939716
sg11
I6
sg3
g160
sg12
F100.87499010822503
sg13
F6.801596860401267
sg35
I45
sg15
I130
sg16
g167
sg24
g174
sg26
g175
sg32
F675.1359590788255
sg33
F257.9937875745119
sg34
g30
sg14
F3.0
sg31
I9
sba(ibiiots
Biot
p660
(dp661
g3
g110
sg11
I7
sg12
F103.9479932185848
sg13
F8.915244466364818
sg14
F3.0
sg15
I1495
sg16
g118
sg24
g126
sg26
g127
sg31
I11
sg32
F613.7132120187457
sg33
F218.18692675860606
sg34
g30
sg35
I57
sg36
F16.075167105968028
sba(ibiiots
Biot
p662
(dp663
g3
g130
sg11
I6
sg12
F-86.03127387096944
sg13
F8.283055772695153
sg14
F3.0
sg15
I618
sg16
g137
sg24
g144
sg26
g145
sg31
I11
sg32
F421.7120818461626
sg33
F392.99218228530816
sg34
g30
sg35
I58
sg36
F31.104924337022066
sba(ibiiots
Biot
p664
(dp665
g36
F31.104924337022066
sg11
I6
sg3
g130
sg12
F-10.51583957646422
sg13
F8.283055772695153
sg35
I58
sg15
I1115
sg16
g137
sg24
g144
sg26
g145
sg32
F563.4721205232246
sg33
F932.4816007858611
sg34
g30
sg14
F3.0
sg31
I11
sba(ibiiots
Biot
p666
(dp667
g3
g130
sg11
I6
sg12
F-48.132430067686585
sg13
F8.283055772695153
sg14
F3.0
sg15
I1450
sg16
g137
sg24
g144
sg26
g145
sg31
I11
sg32
F289.54560429164934
sg33
F517.4016310195972
sg34
g30
sg35
I58
sg36
F31.104924337022066
sba(ibiiots
Biot
p668
(dp669
g3
g160
sg11
I6
sg12
F-9.283213055460244
sg13
F6.801596860401267
sg14
F3.0
sg15
I1124
sg16
g167
sg24
g174
sg26
g175
sg31
I9
sg32
F621.066327070832
sg33
F1116.4695719022936
sg34
g30
sg35
I45
sg36
F17.175920953939716
sba(ibiiots
Biot
p670
(dp671
g36
F20.255921155727563
sg11
I6
sg3
g66
sg12
F58.207826060795135
sg13
F8.6860151983531
sg35
I60
sg15
I1305
sg16
g73
sg24
g80
sg26
g81
sg32
F255.65053580631692
sg33
F1111.2162621752163
sg34
g30
sg14
F3.0
sg31
I12
sba(ibiiots
Biot
p672
(dp673
g36
F17.175920953939716
sg11
I6
sg3
g160
sg12
F-119.00803981967645
sg13
F6.801596860401267
sg35
I45
sg15
I270
sg16
g167
sg24
g174
sg26
g175
sg32
F535.8396908621677
sg33
F833.9711110500197
sg34
g30
sg14
F3.0
sg31
I9
sba(ibiiots
Biot
p674
(dp675
g36
F18.103248877025912
sg11
I6
sg3
g4
sg12
F22.13175745866164
sg13
F7.897401790008113
sg35
I46
sg15
I804
sg16
g17
sg24
g25
sg26
g27
sg32
F43.374336343061934
sg33
F1072.556279974892
sg34
g30
sg14
F3.0
sg31
I9
sba(ibiiots
Biot
p676
(dp677
g3
g110
sg11
I7
sg12
F4.893500588640686
sg13
F8.915244466364818
sg14
F3.0
sg15
I1365
sg16
g118
sg24
g126
sg26
g127
sg31
I11
sg32
F675.532243811519
sg33
F22.386389565829454
sg34
g30
sg35
I57
sg36
F16.075167105968028
sba(ibiiots
Biot
p678
(dp679
g3
g39
sg11
I4
sg12
F-86.86786907549511
sg13
F10.580192795527056
sg14
F3.0
sg15
I110
sg16
g44
sg24
g49
sg26
g50
sg31
I11
sg32
F358.91681312233953
sg33
F1117.2276419421048
sg34
g30
sg35
I59
sg36
F26.561375847728428
sba(ibiiots
Biot
p680
(dp681
g3
g130
sg11
I6
sg12
F137.72692211826373
sg13
F8.283055772695153
sg14
F3.0
sg15
I986
sg16
g137
sg24
g144
sg26
g145
sg31
I11
sg32
F665.3888431897153
sg33
F509.08452705725756
sg34
g30
sg35
I58
sg36
F31.104924337022066
sba(ibiiots
Biot
p682
(dp683
g3
g178
sg11
I4
sg12
F-166.5843521932214
sg13
F8.563454953150067
sg14
F3.0
sg15
I115
sg16
g183
sg24
g188
sg26
g189
sg31
I9
sg32
F430.5364595332144
sg33
F889.9666691090129
sg34
g30
sg35
I45
sg36
F21.122999975314652
sba(ibiiots
Biot
p684
(dp685
g3
g54
sg11
I3
sg12
F92.4071404657602
sg13
F7.618169776686869
sg14
F3.0
sg15
I898
sg16
g58
sg24
g62
sg26
g63
sg31
I8
sg32
F184.8948450193362
sg33
F832.4455727820272
sg34
g30
sg35
I44
sg36
F15.296224082240446
sba(ibiiots
Biot
p686
(dp687
g36
F16.075167105968028
sg11
I7
sg3
g110
sg12
F5.339471514197952
sg13
F8.915244466364818
sg35
I57
sg15
I1425
sg16
g118
sg24
g126
sg26
g127
sg32
F614.4136656029069
sg33
F102.03553269305193
sg34
g30
sg14
F3.0
sg31
I11
sba(ibiiots
Biot
p688
(dp689
g36
F20.255921155727563
sg11
I6
sg3
g66
sg12
F-195.41884131487743
sg13
F8.6860151983531
sg35
I60
sg15
I1280
sg16
g73
sg24
g80
sg26
g81
sg32
F308.2067182937511
sg33
F986.2622938621519
sg34
g30
sg14
F3.0
sg31
I12
sba(ibiiots
Biot
p690
(dp691
g36
F31.104924337022066
sg11
I6
sg3
g130
sg12
F-380.3053314465937
sg13
F8.283055772695153
sg35
I58
sg15
I290
sg16
g137
sg24
g144
sg26
g145
sg32
F658.9508529911086
sg33
F748.3050714491177
sg34
g30
sg14
F3.0
sg31
I11
sba(ibiiots
Biot
p692
(dp693
g36
F21.122999975314652
sg11
I4
sg3
g178
sg12
F17.709175815572728
sg13
F8.563454953150067
sg35
I45
sg15
I245
sg16
g183
sg24
g188
sg26
g189
sg32
F387.14143155570815
sg33
F728.8564144727917
sg34
g30
sg14
F3.0
sg31
I9
sba(ibiiots
Biot
p694
(dp695
g36
F15.296224082240446
sg11
I3
sg3
g54
sg12
F-215.2282929608547
sg13
F7.618169776686869
sg35
I44
sg15
I1148
sg16
g58
sg24
g62
sg26
g63
sg32
F260.6326973043817
sg33
F816.3192128032209
sg34
g30
sg14
F3.0
sg31
I8
sba(ibiiots
Biot
p696
(dp697
g3
g130
sg11
I6
sg12
F125.73866256010922
sg13
F8.283055772695153
sg14
F3.0
sg15
I1352
sg16
g137
sg24
g144
sg26
g145
sg31
I11
sg32
F190.78464958871476
sg33
F786.6226482398727
sg34
g30
sg35
I58
sg36
F31.104924337022066
sba(ibiiots
Biot
p698
(dp699
g3
g66
sg11
I6
sg12
F-32.59146723299639
sg13
F8.6860151983531
sg14
F3.0
sg15
I545
sg16
g73
sg24
g80
sg26
g81
sg31
I12
sg32
F152.64621845024283
sg33
F857.5376958251717
sg34
g30
sg35
I60
sg36
F20.255921155727563
sba(ibiiots
Biot
p700
(dp701
g3
g178
sg11
I4
sg12
F-55.86801999657323
sg13
F8.563454953150067
sg14
F3.0
sg15
I970
sg16
g183
sg24
g188
sg26
g189
sg31
I9
sg32
F221.80495112768972
sg33
F979.0425835735388
sg34
g30
sg35
I45
sg36
F21.122999975314652
sba(ibiiots
Biot
p702
(dp703
g3
g178
sg11
I4
sg12
F-59.85219580444896
sg13
F8.563454953150067
sg14
F3.0
sg15
I750
sg16
g183
sg24
g188
sg26
g189
sg31
I9
sg32
F388.9042099428763
sg33
F869.6884018159186
sg34
g30
sg35
I45
sg36
F21.122999975314652
sba(ibiiots
Biot
p704
(dp705
g3
g178
sg11
I4
sg12
F-180.54835022586673
sg13
F8.563454953150067
sg14
F3.0
sg15
I585
sg16
g183
sg24
g188
sg26
g189
sg31
I9
sg32
F578.317784182521
sg33
F989.5181816498828
sg34
g30
sg35
I45
sg36
F21.122999975314652
sba(ibiiots
Biot
p706
(dp707
g3
g110
sg11
I7
sg12
F-6.346102703036614
sg13
F8.915244466364818
sg14
F3.0
sg15
I1425
sg16
g118
sg24
g126
sg26
g127
sg31
I11
sg32
F544.896260547564
sg33
F180.37707276000845
sg34
g30
sg35
I57
sg36
F16.075167105968028
sba(ibiiots
Biot
p708
(dp709
g3
g110
sg11
I7
sg12
F63.45919145085507
sg13
F8.915244466364818
sg14
F3.0
sg15
I1370
sg16
g118
sg24
g126
sg26
g127
sg31
I11
sg32
F552.3692043021699
sg33
F297.45712059007155
sg34
g30
sg35
I57
sg36
F16.075167105968028
sba(ibiiots
Biot
p710
(dp711
g3
g110
sg11
I7
sg12
F24.610407181402667
sg13
F8.915244466364818
sg14
F3.0
sg15
I1065
sg16
g118
sg24
g126
sg26
g127
sg31
I11
sg32
F369.07875262587896
sg33
F184.83904427583718
sg34
g30
sg35
I57
sg36
F16.075167105968028
sba(ibiiots
Biot
p712
(dp713
g3
g110
sg11
I7
sg12
F-54.88314587950313
sg13
F8.915244466364818
sg14
F3.0
sg15
I1820
sg16
g118
sg24
g126
sg26
g127
sg31
I11
sg32
F588.6994080351562
sg33
F51.03770470249605
sg34
g30
sg35
I57
sg36
F16.075167105968028
sba(ibiiots
Biot
p714
(dp715
g36
F15.296224082240446
sg11
I3
sg3
g54
sg12
F88.4854657088451
sg13
F7.618169776686869
sg35
I44
sg15
I1124
sg16
g58
sg24
g62
sg26
g63
sg32
F28.295339276359087
sg33
F995.4621674439762
sg34
g30
sg14
F3.0
sg31
I8
sba(ibiiots
Biot
p716
(dp717
g3
g54
sg11
I3
sg12
F96.21746855923405
sg13
F7.618169776686869
sg14
F3.0
sg15
I512
sg16
g58
sg24
g62
sg26
g63
sg31
I8
sg32
F82.83322313457136
sg33
F882.1624281881777
sg34
g30
sg35
I44
sg36
F15.296224082240446
sba(ibiiots
Biot
p718
(dp719
g3
g130
sg11
I6
sg12
F31.809198277523816
sg13
F8.283055772695153
sg14
F3.0
sg15
I1416
sg16
g137
sg24
g144
sg26
g145
sg31
I11
sg32
F665.1270702740632
sg33
F995.43187350076
sg34
g30
sg35
I58
sg36
F31.104924337022066
sba(ibiiots
Biot
p720
(dp721
g3
g66
sg11
I6
sg12
F-16.569603895810744
sg13
F8.6860151983531
sg14
F3.0
sg15
I585
sg16
g73
sg24
g80
sg26
g81
sg31
I12
sg32
F572.7371650200391
sg33
F822.2874447785038
sg34
g30
sg35
I60
sg36
F20.255921155727563
sba(ibiiots
Biot
p722
(dp723
g3
g66
sg11
I6
sg12
F-151.72644474243413
sg13
F8.6860151983531
sg14
F3.0
sg15
I670
sg16
g73
sg24
g80
sg26
g81
sg31
I12
sg32
F29.140219530963545
sg33
F1152.9976299431196
sg34
g30
sg35
I60
sg36
F20.255921155727563
sba(ibiiots
Biot
p724
(dp725
g36
F16.075167105968028
sg11
I7
sg3
g110
sg12
F129.88507571625752
sg13
F8.915244466364818
sg35
I57
sg15
I1515
sg16
g118
sg24
g126
sg26
g127
sg32
F622.3302376976076
sg33
F59.73273135386097
sg34
g30
sg14
F3.0
sg31
I11
sba(ibiiots
Biot
p726
(dp727
g3
g110
sg11
I7
sg12
F37.198860328108026
sg13
F8.915244466364818
sg14
F3.0
sg15
I1395
sg16
g118
sg24
g126
sg26
g127
sg31
I11
sg32
F577.639641438139
sg33
F234.24614736654138
sg34
g30
sg35
I57
sg36
F16.075167105968028
sba(ibiiots
Biot
p728
(dp729
g36
F31.104924337022066
sg11
I6
sg3
g130
sg12
F93.55949021085077
sg13
F8.283055772695153
sg35
I58
sg15
I384
sg16
g137
sg24
g144
sg26
g145
sg32
F561.6778574780127
sg33
F587.7390906294677
sg34
g30
sg14
F3.0
sg31
I11
sba(ibiiots
Biot
p730
(dp731
g36
F16.075167105968028
sg11
I7
sg3
g110
sg12
F55.27723903529941
sg13
F8.915244466364818
sg35
I57
sg15
I1615
sg16
g118
sg24
g126
sg26
g127
sg32
F513.5951421738463
sg33
F23.083220108392783
sg34
g30
sg14
F3.0
sg31
I11
sba(ibiiots
Biot
p732
(dp733
g3
g130
sg11
I6
sg12
F-65.81428268350122
sg13
F8.283055772695153
sg14
F3.0
sg15
I544
sg16
g137
sg24
g144
sg26
g145
sg31
I11
sg32
F110.22807221602586
sg33
F745.9351331956311
sg34
g30
sg35
I58
sg36
F31.104924337022066
sba(ibiiots
Biot
p734
(dp735
g36
F16.075167105968028
sg11
I7
sg3
g110
sg12
F-128.06772885615626
sg13
F8.915244466364818
sg35
I57
sg15
I1735
sg16
g118
sg24
g126
sg26
g127
sg32
F682.0056642676866
sg33
F291.55805565455313
sg34
g30
sg14
F3.0
sg31
I11
sba(ibiiots
Biot
p736
(dp737
g3
g54
sg11
I3
sg12
F34.719185427946634
sg13
F7.618169776686869
sg14
F3.0
sg15
I940
sg16
g58
sg24
g62
sg26
g63
sg31
I8
sg32
F15.475196145349496
sg33
F809.6356805184599
sg34
g30
sg35
I44
sg36
F15.296224082240446
sba(ibiiots
Biot
p738
(dp739
g36
F26.561375847728428
sg11
I4
sg3
g39
sg12
F-58.76052668318948
sg13
F10.580192795527056
sg35
I59
sg15
I155
sg16
g44
sg24
g49
sg26
g50
sg32
F600.7892141711119
sg33
F1040.2990234189563
sg34
g30
sg14
F3.0
sg31
I11
sba(ibiiots
Biot
p740
(dp741
g36
F16.075167105968028
sg11
I7
sg3
g110
sg12
F6.297234049737428
sg13
F8.915244466364818
sg35
I57
sg15
I1010
sg16
g118
sg24
g126
sg26
g127
sg32
F405.09890732677866
sg33
F95.50905742160536
sg34
g30
sg14
F3.0
sg31
I11
sba(ibiiots
Biot
p742
(dp743
g36
F15.296224082240446
sg11
I3
sg3
g54
sg12
F129.04177530508392
sg13
F7.618169776686869
sg35
I44
sg15
I868
sg16
g58
sg24
g62
sg26
g63
sg32
F405.70012699799423
sg33
F687.9596122633789
sg34
g30
sg14
F3.0
sg31
I8
sba(ibiiots
Biot
p744
(dp745
g3
g130
sg11
I6
sg12
F61.49506198561939
sg13
F8.283055772695153
sg14
F3.0
sg15
I404
sg16
g137
sg24
g144
sg26
g145
sg31
I11
sg32
F31.404969429990206
sg33
F430.5882502439889
sg34
g30
sg35
I58
sg36
F31.104924337022066
sba(ibiiots
Biot
p746
(dp747
g36
F31.104924337022066
sg11
I6
sg3
g130
sg12
F-212.48336721913495
sg13
F8.283055772695153
sg35
I58
sg15
I894
sg16
g137
sg24
g144
sg26
g145
sg32
F36.73098027071582
sg33
F170.61404438196243
sg34
g30
sg14
F3.0
sg31
I11
sba(ibiiots
Biot
p748
(dp749
g3
g54
sg11
I3
sg12
F39.46510066238394
sg13
F7.618169776686869
sg14
F3.0
sg15
I806
sg16
g58
sg24
g62
sg26
g63
sg31
I8
sg32
F61.84091474932107
sg33
F1037.368686811153
sg34
g30
sg35
I44
sg36
F15.296224082240446
sba(ibiiots
Biot
p750
(dp751
g3
g66
sg11
I6
sg12
F59.26911308574649
sg13
F8.6860151983531
sg14
F3.0
sg15
I1150
sg16
g73
sg24
g80
sg26
g81
sg31
I12
sg32
F171.54170138241906
sg33
F999.3951963121822
sg34
g30
sg35
I60
sg36
F20.255921155727563
sba(ibiiots
Biot
p752
(dp753
g3
g130
sg11
I6
sg12
F152.6915943103109
sg13
F8.283055772695153
sg14
F3.0
sg15
I938
sg16
g137
sg24
g144
sg26
g145
sg31
I11
sg32
F302.9283329941393
sg33
F289.57951930469886
sg34
g30
sg35
I58
sg36
F31.104924337022066
sba(ibiiots
Biot
p754
(dp755
g36
F16.075167105968028
sg11
I7
sg3
g110
sg12
F120.6075201303937
sg13
F8.915244466364818
sg35
I57
sg15
I725
sg16
g118
sg24
g126
sg26
g127
sg32
F607.3443856089208
sg33
F143.39963349190535
sg34
g30
sg14
F3.0
sg31
I11
sba(ibiiots
Biot
p756
(dp757
g3
g130
sg11
I6
sg12
F-67.54509975579784
sg13
F8.283055772695153
sg14
F3.0
sg15
I876
sg16
g137
sg24
g144
sg26
g145
sg31
I11
sg32
F349.7317264761298
sg33
F687.6808586465006
sg34
g30
sg35
I58
sg36
F31.104924337022066
sba(ibiiots
Biot
p758
(dp759
g3
g130
sg11
I6
sg12
F46.95479979287429
sg13
F8.283055772695153
sg14
F3.0
sg15
I537
sg16
g137
sg24
g144
sg26
g145
sg31
I11
sg32
F99.13174100608478
sg33
F836.3836392818265
sg34
g30
sg35
I58
sg36
F31.104924337022066
sba(ibiiots
Biot
p760
(dp761
g36
F31.104924337022066
sg11
I6
sg3
g130
sg12
F-331.2530029344624
sg13
F8.283055772695153
sg35
I58
sg15
I256
sg16
g137
sg24
g144
sg26
g145
sg32
F220.8930018232479
sg33
F98.41410812012096
sg34
g30
sg14
F3.0
sg31
I11
sba(ibiiots
Biot
p762
(dp763
g3
g110
sg11
I7
sg12
F-243.07786480547563
sg13
F8.915244466364818
sg14
F3.0
sg15
I960
sg16
g118
sg24
g126
sg26
g127
sg31
I11
sg32
F532.1016657603363
sg33
F216.96013778457709
sg34
g30
sg35
I57
sg36
F16.075167105968028
sba(ibiiots
Biot
p764
(dp765
g36
F21.122999975314652
sg11
I4
sg3
g178
sg12
F-121.25007702421428
sg13
F8.563454953150067
sg35
I45
sg15
I1115
sg16
g183
sg24
g188
sg26
g189
sg32
F678.5496574870087
sg33
F1054.699970596256
sg34
g30
sg14
F3.0
sg31
I9
sba(ibiiots
Biot
p766
(dp767
g36
F20.255921155727563
sg11
I6
sg3
g66
sg12
F-46.03387705108702
sg13
F8.6860151983531
sg35
I60
sg15
I305
sg16
g73
sg24
g80
sg26
g81
sg32
F504.13171757325875
sg33
F992.8133513490621
sg34
g30
sg14
F3.0
sg31
I12
sba(ibiiots
Biot
p768
(dp769
g36
F16.075167105968028
sg11
I7
sg3
g110
sg12
F-123.99158832225748
sg13
F8.915244466364818
sg35
I57
sg15
I825
sg16
g118
sg24
g126
sg26
g127
sg32
F482.07014399326556
sg33
F235.06751209922913
sg34
g30
sg14
F3.0
sg31
I11
sba(ibiiots
Biot
p770
(dp771
g3
g66
sg11
I6
sg12
F-92.50268671559951
sg13
F8.6860151983531
sg14
F3.0
sg15
I860
sg16
g73
sg24
g80
sg26
g81
sg31
I12
sg32
F199.2609647776536
sg33
F1179.6296307580474
sg34
g30
sg35
I60
sg36
F20.255921155727563
sba(ibiiots
Biot
p772
(dp773
g36
F16.075167105968028
sg11
I7
sg3
g110
sg12
F133.98113478466496
sg13
F8.915244466364818
sg35
I57
sg15
I830
sg16
g118
sg24
g126
sg26
g127
sg32
F516.7315114032358
sg33
F255.01806621472178
sg34
g30
sg14
F3.0
sg31
I11
sba(ibiiots
Biot
p774
(dp775
g36
F16.075167105968028
sg11
I7
sg3
g110
sg12
F128.72695985611074
sg13
F8.915244466364818
sg35
I57
sg15
I1230
sg16
g118
sg24
g126
sg26
g127
sg32
F408.9501833252414
sg33
F225.28245400562935
sg34
g30
sg14
F3.0
sg31
I11
sba(ibiiots
Biot
p776
(dp777
g3
g196
sg11
I9
sg12
F16.593278343796367
sg13
F9.643634733441136
sg14
F3.0
sg15
I305
sg16
g206
sg24
g216
sg26
g217
sg31
I10
sg32
F225.30991414150526
sg33
F37.92820595512711
sg34
g30
sg35
I52
sg36
F28.45368179595848
sba(ibiiots
Biot
p778
(dp779
g36
F20.255921155727563
sg11
I6
sg3
g66
sg12
F204.13363547409796
sg13
F8.6860151983531
sg35
I60
sg15
I490
sg16
g73
sg24
g80
sg26
g81
sg32
F254.98223774625987
sg33
F1067.7521129784238
sg34
g30
sg14
F3.0
sg31
I12
sba(ibiiots
Biot
p780
(dp781
g3
g54
sg11
I3
sg12
F35.43565816304937
sg13
F7.618169776686869
sg14
F3.0
sg15
I968
sg16
g58
sg24
g62
sg26
g63
sg31
I8
sg32
F19.451880879926577
sg33
F877.7963555067033
sg34
g30
sg35
I44
sg36
F15.296224082240446
sba(ibiiots
Biot
p782
(dp783
g36
F16.075167105968028
sg11
I7
sg3
g110
sg12
F0.5929429788407015
sg13
F8.915244466364818
sg35
I57
sg15
I775
sg16
g118
sg24
g126
sg26
g127
sg32
F600.1821359233694
sg33
F22.80417095289827
sg34
g30
sg14
F3.0
sg31
I11
sba(ibiiots
Biot
p784
(dp785
g36
F16.075167105968028
sg11
I7
sg3
g110
sg12
F-81.24033357203417
sg13
F8.915244466364818
sg35
I57
sg15
I630
sg16
g118
sg24
g126
sg26
g127
sg32
F529.5946967204791
sg33
F113.3398885881104
sg34
g30
sg14
F3.0
sg31
I11
sba(ibiiots
Biot
p786
(dp787
g36
F21.122999975314652
sg11
I4
sg3
g178
sg12
F41.52738971547175
sg13
F8.563454953150067
sg35
I45
sg15
I695
sg16
g183
sg24
g188
sg26
g189
sg32
F171.65258964316735
sg33
F1050.58862092972
sg34
g30
sg14
F3.0
sg31
I9
sba(ibiiots
Biot
p788
(dp789
g36
F20.255921155727563
sg11
I6
sg3
g66
sg12
F80.41361908684391
sg13
F8.6860151983531
sg35
I60
sg15
I355
sg16
g73
sg24
g80
sg26
g81
sg32
F74.09745559312282
sg33
F985.5271067218101
sg34
g30
sg14
F3.0
sg31
I12
sba(ibiiots
Biot
p790
(dp791
g36
F31.104924337022066
sg11
I6
sg3
g130
sg12
F30.49566328928067
sg13
F8.283055772695153
sg35
I58
sg15
I246
sg16
g137
sg24
g144
sg26
g145
sg32
F261.8744251572771
sg33
F862.366985679043
sg34
g30
sg14
F3.0
sg31
I11
sba(ibiiots
Biot
p792
(dp793
g36
F31.104924337022066
sg11
I6
sg3
g130
sg12
F-75.64603991967856
sg13
F8.283055772695153
sg35
I58
sg15
I230
sg16
g137
sg24
g144
sg26
g145
sg32
F402.2623580787549
sg33
F144.62180625863905
sg34
g30
sg14
F3.0
sg31
I11
sba(ibiiots
Biot
p794
(dp795
g36
F31.104924337022066
sg11
I6
sg3
g130
sg12
F-241.56058779443794
sg13
F8.283055772695153
sg35
I58
sg15
I115
sg16
g137
sg24
g144
sg26
g145
sg32
F81.50492001563268
sg33
F688.2068988799595
sg34
g30
sg14
F3.0
sg31
I11
sba(ibiiots
Biot
p796
(dp797
g3
g130
sg11
I6
sg12
F25.630831136086424
sg13
F8.283055772695153
sg14
F3.0
sg15
I153
sg16
g137
sg24
g144
sg26
g145
sg31
I11
sg32
F666.9267943095557
sg33
F932.7924409628936
sg34
g30
sg35
I58
sg36
F31.104924337022066
sba(ibiiots
Biot
p798
(dp799
g3
g130
sg11
I6
sg12
F97.14515809541182
sg13
F8.283055772695153
sg14
F3.0
sg15
I177
sg16
g137
sg24
g144
sg26
g145
sg31
I11
sg32
F190.91160145751243
sg33
F345.66342286153406
sg34
g30
sg35
I58
sg36
F31.104924337022066
sba(ibiiots
Biot
p800
(dp801
g36
F31.104924337022066
sg11
I6
sg3
g130
sg12
F92.56821476890507
sg13
F8.283055772695153
sg35
I58
sg15
I153
sg16
g137
sg24
g144
sg26
g145
sg32
F231.53886963647253
sg33
F570.4654774939701
sg34
g30
sg14
F3.0
sg31
I11
sba(ibiiots
Biot
p802
(dp803
g36
F21.122999975314652
sg11
I4
sg3
g178
sg12
F113.51070746437813
sg13
F8.563454953150067
sg35
I45
sg15
I280
sg16
g183
sg24
g188
sg26
g189
sg32
F429.3952596176295
sg33
F829.1217681204784
sg34
g30
sg14
F3.0
sg31
I9
sba(ibiiots
Biot
p804
(dp805
g3
g110
sg11
I7
sg12
F14.990490092685267
sg13
F8.915244466364818
sg14
F3.0
sg15
I780
sg16
g118
sg24
g126
sg26
g127
sg31
I11
sg32
F683.7996086131627
sg33
F146.0269213859819
sg34
g30
sg35
I57
sg36
F16.075167105968028
sba(ibiiots
Biot
p806
(dp807
g36
F16.075167105968028
sg11
I7
sg3
g110
sg12
F-164.60891571200102
sg13
F8.915244466364818
sg35
I57
sg15
I600
sg16
g118
sg24
g126
sg26
g127
sg32
F661.8550934846326
sg33
F120.27152515909631
sg34
g30
sg14
F3.0
sg31
I11
sba(ibiiots
Biot
p808
(dp809
g3
g178
sg11
I4
sg12
F152.4385798612663
sg13
F8.563454953150067
sg14
F3.0
sg15
I670
sg16
g183
sg24
g188
sg26
g189
sg31
I9
sg32
F677.0837472484534
sg33
F1171.3098613130524
sg34
g30
sg35
I45
sg36
F21.122999975314652
sba(ibiiots
Biot
p810
(dp811
g36
F31.104924337022066
sg11
I6
sg3
g130
sg12
F185.9187531880209
sg13
F8.283055772695153
sg35
I58
sg15
I50
sg16
g137
sg24
g144
sg26
g145
sg32
F651.6845051220151
sg33
F571.447490047156
sg34
g30
sg14
F3.0
sg31
I11
sba(ibiiots
Biot
p812
(dp813
g36
F21.122999975314652
sg11
I4
sg3
g178
sg12
F387.1612651153112
sg13
F8.563454953150067
sg35
I45
sg15
I600
sg16
g183
sg24
g188
sg26
g189
sg32
F501.0501285200082
sg33
F713.9781659712643
sg34
g30
sg14
F3.0
sg31
I9
sba(ibiiots
Biot
p814
(dp815
g36
F16.075167105968028
sg11
I7
sg3
g110
sg12
F160.72254406380068
sg13
F8.915244466364818
sg35
I57
sg15
I615
sg16
g118
sg24
g126
sg26
g127
sg32
F529.2586905148758
sg33
F376.7555937318375
sg34
g30
sg14
F3.0
sg31
I11
sba(ibiiots
Biot
p816
(dp817
g36
F31.104924337022066
sg11
I6
sg3
g130
sg12
F-20.410172339095922
sg13
F8.283055772695153
sg35
I58
sg15
I569
sg16
g137
sg24
g144
sg26
g145
sg32
F536.102513910251
sg33
F952.3645875549588
sg34
g30
sg14
F3.0
sg31
I11
sba(ibiiots
Biot
p818
(dp819
g3
g130
sg11
I6
sg12
F-59.31594604983692
sg13
F8.283055772695153
sg14
F3.0
sg15
I472
sg16
g137
sg24
g144
sg26
g145
sg31
I11
sg32
F456.80578061397654
sg33
F406.5395941702529
sg34
g30
sg35
I58
sg36
F31.104924337022066
sba.