(lp0
(ibiiots
Biot
p1
(dp2
S'BodyMatX'
p3
(lp4
(lp5
F5.811186723866081
aF2.6765035357695104
aF8.84089347930559
aF-8.987252523381716
aF-7.646134485495322
aa(lp6
F8.869131487088747
aF7.57367040855627
aF5.689538943093199
aF-7.192430183319151
aF-8.908768891761074
aa(lp7
F7.777111058085701
aF8.927032725208829
aF-0.12401409677444639
aF-2.032189825523971
aF-6.00289132363425
aa(lp8
F3.0460939320426723
aF6.1033372168187165
aF-5.8795395624981674
aF4.078934736908012
aF-0.28819419047322176
aa(lp9
F-3.110224398366244
aF0.42382239364161545
aF-8.883963123125382
aF8.281480403630688
aF5.561352207331895
aa(lp10
F-7.8112341664857325
aF-5.454003637781617
aF-7.731481604190057
aF8.609029351091982
aF8.808680099781332
aa(lp11
F-8.857280655908756
aF-8.779840752588223
aF-2.9613539168074174
aF4.9083177864737095
aF7.9343286759685405
aa(lp12
F-5.758907088722495
aF-7.997492802197889
aF3.194424180032169
aF-1.089050220311537
aF3.347416684429192
aa(lp13
F0.034123108400029016
aF-3.4730290874272036
aF7.855495700964519
aF-6.576839525568012
aF-2.8057887761470948
aasS'symmetry'
p14
I9
sS'angleMove'
p15
F9.423829807137444
sS'angleRot'
p16
F11.028617678880172
sS'speed'
p17
F3.0
sS'energy'
p18
I1488
sS'BodyMatY'
p19
(lp20
(lp21
F6.872416522618708
aF8.5928068070342
aF-1.6848152680848725
aF-0.4788445269280594
aF-4.7472757903580005
aa(lp22
F1.5292176642750817
aF4.862048595248623
aF-6.973460160854576
aF5.410078378182671
aF1.278216270116356
aa(lp23
F-4.529519134544096
aF-1.1437161899049193
aF-8.99914554298358
aF8.767565483818005
aF6.705616732011802
aa(lp24
F-8.468843590312247
aF-6.614323458812365
aF-6.814030711188412
aF8.022611258938399
aF8.995384600370208
aa(lp25
F-8.445502009460855
aF-8.99001527132451
aF-1.4405551801122787
aF3.523788064609007
aF7.076112041651451
aa(lp26
F-4.470416177083064
aF-7.159179025493418
aF4.60697212972585
aF-2.623854727692972
aF1.8458480164185596
aa(lp27
F1.5964270676935333
aF-1.9784833482218291
aF8.498845979273266
aF-7.54376673201033
aF-4.248108810012204
aa(lp28
F6.916284345185773
aF4.127966676075882
aF8.414015340966868
aF-8.933866442791688
aF-8.354328311767803
aa(lp29
F8.99993531162714
aF8.302895215398335
aF4.39217341325772
aF-6.143710756125024
aF-8.551464748430352
aasS'angleSeg'
p30
(lp31
F3.389210794670107
aF2.9892446792798584
aF4.446396660465363
aF1.063261220241976
aF0.5608654742725099
asS'color'
p32
(lp33
(I0
I0
I255
tp34
a(I0
I255
I0
tp35
a(I255
I0
I0
tp36
ag35
a(I255
I255
I255
tp37
asS'segSize'
p38
I9
sS'y'
p39
F588.4741953893026
sS'x'
p40
F76.83057198775852
sS'colorOut'
p41
g36
sS'root'
p42
I46
sS'size'
p43
F22.139996855032003
sba(ibiiots
Biot
p44
(dp45
g3
(lp46
(lp47
F-2.3220472443532936
aF-1.9615719968423244
aF2.56168130187239
aF-8.460628919364014
aF-5.100245370261821
aa(lp48
F5.350479972174485
aF5.644301859037637
aF-5.14825166664308
aF-2.875802753185722
aF-8.977509357438276
aa(lp49
F8.993986639753686
aF8.999901292286848
aF-8.981446124980769
aF4.874561541826882
aF-6.094525690646421
aa(lp50
F5.864837923705759
aF5.578391487914537
aF-6.051428463095219
aF8.954281572909412
aF1.3777601268700805
aa(lp51
F-1.6806533697839052
aF-2.0437608853062876
aF1.4354382581456921
aF6.291244945534316
aF7.812564467668602
aa(lp52
F-7.960578396745319
aF-8.12691962676703
aF7.841390693398625
aF-1.1092274438375136
aF8.364348417040473
aa(lp53
F-8.246025524751403
aF-8.090342130323371
aF8.34261600130236
aF-7.674428943883357
aF2.6176074067673474
aasg14
I7
sg15
F-28.997319146042184
sg16
F11.152545943337346
sg17
F3.0
sg18
I2660
sg19
(lp54
(lp55
F8.695291633694138
aF8.783634515461355
aF-8.62773370634707
aF3.068836634430271
aF-7.415355498094669
aa(lp56
F7.236875297209405
aF7.010125285903546
aF-7.3821070689137755
aF8.528174395776004
aF-0.6358661314366192
aa(lp57
F0.3289442565727754
aF-0.04215126443555305
aF-0.577603241046941
aF7.565622894047941
aF6.62244340149848
aa(lp58
F-6.82668851850315
aF-7.062687052925582
aF6.661847608287136
aF0.9060030425196928
aF8.89391797987855
aa(lp59
F-8.841685600078415
aF-8.764875438002075
aF8.884791331654991
aF-6.435855579119915
aF4.468090916546129
aa(lp60
F-4.198713087277068
aF-3.866933847387206
aF4.417305965572391
aF-8.931383682153493
aF-3.3222997393902514
aa(lp61
F3.605976018382314
aF3.942887801385516
aF-3.3765008892067274
aF-4.701397705500501
aF-8.61093092900162
aasg30
(lp62
F2.3024023844025536
aF2.3436433795343334
aF5.41633026591386
aF1.3405241787934492
aF0.024254432741725493
asg32
(lp63
g35
ag35
ag35
ag34
ag37
asg38
I9
sg39
F303.89948883463575
sg40
F746.0567391093728
sg41
g35
sg42
I48
sg43
F17.996173291318765
sba(ibiiots
Biot
p64
(dp65
g3
(lp66
(lp67
F10.995711794520645
aF1.3215837151585417
aF-6.845504733046601
aF10.979148622536828
aF-7.732308720852284
aa(lp68
F7.095829536904479
aF-7.713856993256301
aF-10.999987672562588
aF7.374667782833322
aF-10.937886570624373
aa(lp69
F-2.1473570905447996
aF-10.940606051742495
aF-6.871255535782518
aF-1.783088313151361
aF-5.907012740491502
aa(lp70
F-9.773540030711926
aF-5.928855605574476
aF2.4316721675110515
aF-9.598142540960053
aF3.571962164332251
aa(lp71
F-10.04004798386916
aF3.5474440382051533
aF9.903501131596244
aF-10.18559966899877
aF10.361176704664318
aa(lp72
F-2.746195025517593
aF10.35244596654543
aF9.917791748982319
aF-3.1030924979127956
aF9.348213856896711
aa(lp73
F6.615598799218352
aF9.361844930664152
aF2.463782893302094
aF6.316106615652825
aF1.2958553060748788
aasg14
I7
sg15
F25.994534978478576
sg16
F10.34257112356328
sg17
F3.0
sg18
F2675.0
sg19
(lp74
(lp75
F0.3071190841344523
aF-10.920321262848807
aF-8.610404459131788
aF0.6769752759500702
aF-7.823771586992536
aa(lp76
F-8.40530803618725
aF-7.841964695635326
aF-0.016468256467895386
aF-8.161756863129424
aF1.1673205935624509
aa(lp77
F-10.788366768222472
aF1.1415512343191043
aF8.589868879207534
aF-10.854519614773517
aF9.27939655816428
aa(lp78
F-5.047565281209498
aF9.265455801429745
aF10.727859547447109
aF-5.37360770464433
aF10.403897649274471
aa(lp79
F4.494155814121806
aF10.412283169209465
aF4.787553168004709
aF4.153740408703003
aF3.694051609645088
aa(lp80
F10.651685917347658
aF3.718448938705127
aF-4.757878395232294
aF10.55323727343403
aF-5.797490636967368
aa(lp81
F8.788279270015302
aF-5.775453185179318
aF-10.720530483827373
aF9.005931224460168
aF-10.923404186686382
aasg30
(lp82
F4.916206965035185
aF0.11130662430998149
aF0.9034428410123625
aF4.88254838731179
aF1.0112602038342868
asg32
(lp83
g35
ag35
ag35
ag34
ag37
asg38
I11
sg39
F162.35156537058936
sg40
F172.5626465307677
sg41
g37
sg42
I58
sg43
F27.77431677992547
sba(ibiiots
Biot
p84
(dp85
g3
(lp86
(lp87
F4.932512020994538
aF2.5446150307236604
aF-4.611281004712283
aF-9.213525155618388
aF-9.847144972928646
aa(lp88
F9.999697712140568
aF9.647491140755449
aF-9.990174686136232
aF-1.2402784095573443
aF-6.431982878762968
aa(lp89
F5.067185691146037
aF7.102876110031801
aF-5.378893681423956
aF7.973246746061044
aF3.415162094165669
aa(lp90
F-4.932512020994537
aF-2.5446150307236506
aF4.611281004712281
aF9.213525155618388
aF9.847144972928646
aa(lp91
F-9.999697712140568
aF-9.647491140755445
aF9.990174686136232
aF1.2402784095573542
aF6.431982878762982
aa(lp92
F-5.0671856911460225
aF-7.102876110031789
aF5.378893681423942
aF-7.973246746061053
aF-3.4151620941656677
aasg14
I6
sg15
F2.62488736879071
sg16
F12.447335057302142
sg17
F3.0
sg18
I936
sg19
(lp93
(lp94
F8.698869188736222
aF9.670829041267105
aF-8.873335759204634
aF3.8872810815256416
aF-1.7417622920841067
aa(lp95
F0.07775387971472268
aF2.631713261175146
aF-0.44318138553284536
aF9.922787383935317
aF7.656996555262387
aa(lp96
F-8.6211153090215
aF-7.039115780091951
aF8.43015437367178
aF6.035506302409682
aF9.398758847346492
aa(lp97
F-8.698869188736223
aF-9.670829041267107
aF8.873335759204634
aF-3.8872810815256402
aF1.7417622920841078
aa(lp98
F-0.0777538797147328
aF-2.631713261175164
aF0.4431813855328643
aF-9.922787383935317
aF-7.656996555262374
aa(lp99
F8.621115309021508
aF7.039115780091962
aF-8.430154373671789
aF-6.035506302409669
aF-9.398758847346492
aasg30
(lp100
F1.7843935591566955
aF1.5258610862354647
aF4.889429020151587
aF0.09702465141252331
aF5.805890082099461
asg32
(lp101
g34
ag37
ag35
ag36
ag35
asg38
I10
sg39
F21.725888381595254
sg40
F509.42579135532236
sg41
g35
sg42
I54
sg43
F19.945067718852144
sba(ibiiots
Biot
p102
(dp103
g3
(lp104
(lp105
F-6.775524032572391
aF-1.515162370777571
aF-9.759037229428538
aF-5.760275028886194
aF-4.670735368935343
aa(lp106
F-0.4628135729515307
aF5.192983066444485
aF-8.878428872268039
aF-9.666967443767128
aF-9.26163767306641
aa(lp107
F6.066452501053271
aF9.47127401329908
aF-3.843504973027514
aF-9.05037835533356
aF-9.518916778332471
aa(lp108
F9.7571580287057
aF9.317850587845394
aF2.9898376188922704
aF-4.199016650687982
aF-5.322188932040767
aa(lp109
F8.882380875994178
aF4.804501315964663
aF8.42420196058851
aF2.617111611686373
aF1.364850265094144
aa(lp110
F3.8514389947375345
aF-1.956927517740312
aF9.916788580349392
aF8.208664264997003
aF7.413260854570435
aa(lp111
F-2.981633996133304
aF-7.802688217067812
aF6.76919961053628
aF9.95929167957417
aF9.992924300976119
aa(lp112
F-8.419567303042637
aF-9.997484382409143
aF0.45422691167954776
aF7.04985583208074
aF7.896787407972284
aa(lp113
F-9.917891495790808
aF-7.514346495558771
aF-6.073283607321882
aF0.8417140903365778
aF2.1056559237620274
aasg14
I9
sg15
F22.699334081785636
sg16
F11.390541279748945
sg17
F3.0
sg18
F3232.0
sg19
(lp114
(lp115
F7.354745004691459
aF9.884547687688075
aF-2.182015663240704
aF-8.174303125746572
aF-8.842184747751904
aa(lp116
F9.989284438671863
aF8.545930427497105
aF4.601467239922205
aF-2.5592460688934264
aF-3.7712156677704107
aa(lp117
F7.949726665267462
aF3.208577342843013
aF9.231872481913557
aF4.253310666446761
aF3.0643471355544194
aa(lp118
F2.1904034338139415
aF-3.6301047398923987
aF9.54258198878357
aF9.075696070673867
aF8.466067857728449
aa(lp119
F-4.593833907943657
aF-8.770220470711887
aF5.388211329116251
aF9.651462418306169
aF9.906421339407709
aa(lp120
F-9.228565309397508
aF-9.806652573141905
aF-1.28736329474313
aF5.711202236356301
aF6.711450178768641
aa(lp121
F-9.545148438505404
aF-6.254442947795682
aF-7.360566325542858
aF-0.9013929449273037
aF0.3761168900234758
aa(lp122
F-5.395450530728211
aF0.22429004321477308
aF-9.989678569038448
aF-7.092216349412727
aF-6.135205671637291
aa(lp123
F1.2788386441300417
aF6.59807523029888
aF-7.944509187170427
aF-9.96451290280307
aF-9.775797314323057
aasg30
(lp124
F1.5809344312250726
aF2.1732619875021073
aF0.5345964502414029
aF6.080817264603758
aF5.952934894138743
asg32
(lp125
g37
ag35
ag35
ag35
ag37
asg38
I10
sg39
F111.88373059556315
sg40
F1108.3224705154075
sg41
g37
sg42
I54
sg43
F28.548042280591496
sba(ibiiots
Biot
p126
(dp127
g3
(lp128
(lp129
F-7.570351118108278
aF-8.734487982015095
aF-8.78270737812321
aF-4.82209863379234
aF-7.7355305832183685
aa(lp130
F-8.000307580879497
aF-6.246483137317939
aF-6.093716262867523
aF4.170023815540781
aF0.1160990317670453
aa(lp131
F-0.4299564627712266
aF2.4880048446971528
aF2.6889911152556834
aF8.992122449333124
aF7.851629614985414
aa(lp132
F7.570351118108278
aF8.734487982015095
aF8.782707378123208
aF4.822098633792341
aF7.735530583218373
aa(lp133
F8.000307580879497
aF6.246483137317934
aF6.093716262867524
aF-4.170023815540773
aF-0.11609903176704418
aa(lp134
F0.42995646277121174
aF-2.488004844697152
aF-2.68899111525569
aF-8.992122449333124
aF-7.851629614985417
aasg14
I6
sg15
F4.641944764782089
sg16
F7.732147062599505
sg17
F3.0
sg18
I2572
sg19
(lp135
(lp136
F-4.867215214941366
aF-2.169958453987971
aF-1.9657189804903792
aF7.599168689138177
aF4.600170279032428
aa(lp137
F4.12250877637902
aF6.479309254480961
aF6.623188213214529
aF7.975644260987492
aF8.999251136334776
aa(lp138
F8.989723991320382
aF8.649267708468937
aF8.588907193704912
aF0.3764755718493182
aF4.399080857302353
aa(lp139
F4.867215214941368
aF2.169958453987972
aF1.965718980490388
aF-7.599168689138177
aF-4.600170279032421
aa(lp140
F-4.122508776379019
aF-6.479309254480967
aF-6.623188213214529
aF-7.975644260987496
aF-8.999251136334776
aa(lp141
F-8.989723991320382
aF-8.649267708468937
aF-8.58890719370491
aF-0.3764755718493033
aF-4.399080857302347
aasg30
(lp142
F3.8415720115286525
aF4.169456097671852
aF4.192773782406119
aF5.418316641064155
aF4.949460943601645
asg32
(lp143
g35
ag35
ag36
ag35
ag36
asg38
I9
sg39
F39.0831966198219
sg40
F779.8995178880502
sg41
g36
sg42
I45
sg43
F37.780636868579336
sba(ibiiots
Biot
p144
(dp145
g3
(lp146
(lp147
F7.955120336602735
aF6.378562285197161
aF6.8664019553764835
aF-4.34789149863628
aF-5.1648268273265305
aa(lp148
F5.5500465777690255
aF7.989930944310875
aF2.6212085507413687
aF-7.647217775504641
aF-0.02945102701476037
aa(lp149
F0.5480443433001942
aF5.862722116390269
aF-2.85047746627373
aF-7.368325865855725
aF5.119705236148912
aa(lp150
F-4.710393930233222
aF0.9922804533121301
aF-6.988393397291082
aF-3.641712393752581
aF7.873294520132784
aa(lp151
F-7.764786533613239
aF-4.342460261839604
aF-7.856362390374649
aF1.7888987805123728
aF6.942881796224729
aa(lp152
F-7.185949221925764
aF-7.645315559406546
aF-5.0482521072597795
aF6.38246433398022
aF2.7638175183269458
aa(lp153
F-3.2447264063695185
aF-7.370842738509284
aF0.12199144191459173
aF7.98960389238886
aF-2.7084676928062437
aa(lp154
F2.2147399558442133
aF-3.647470682471276
aF5.23515383963328
aF5.858318994992262
aF-6.913430769209968
aa(lp155
F6.6379048786255685
aF1.7825934430162649
aF7.89872957353351
aF0.9858615318755029
aF-7.883522754475852
aasg14
I9
sg15
F-1.3988768456257303
sg16
F8.921646094163318
sg17
F3.0
sg18
F1256.0
sg19
(lp156
(lp157
F-0.846203539445206
aF4.828451426064094
aF-4.105182600957234
aF-6.715343588833438
aF6.109383262140963
aa(lp158
F-5.761682305073261
aF-0.4012524207322968
aF-7.558390419495432
aF-2.3494808562756666
aF7.999945789629313
aa(lp159
F-7.981205886191425
aF-5.443205800444111
aF-7.474943358599161
aF3.1157300805046444
aF6.147244772656236
aa(lp160
F-6.466234531937581
aF-7.938222691634109
aF-3.8938872254725627
aF7.123056285134131
aF1.4181796075416762
aa(lp161
F-1.9256401759982333
aF-6.718856961890461
aF1.5091620161886972
aF7.797425289996778
aF-3.9744675572523276
aa(lp162
F3.515982619397386
aF-2.355663387900777
aF6.206057578007732
aF4.823292342940705
aF-7.507417180721282
aa(lp163
F7.312438071382783
aF3.109771265570019
aF7.999069826429795
aF-0.4077126963006866
aF-7.5275628696826455
aa(lp164
F7.687322481071493
aF7.120109382622751
aF6.049228403306733
aF-5.447944433721113
aF-4.025478232376978
aa(lp165
F4.465223266794044
aF7.798869188344899
aF1.2688857805914333
aF-7.93902242344535
aF1.3601724080650512
aasg30
(lp166
F0.18784391858282498
aF5.717101445085064
aF0.6207185295032484
aF2.2272515097165124
aF4.092446125526528
asg32
(lp167
g36
ag35
ag37
ag35
ag34
asg38
I8
sg39
F631.6729163149995
sg40
F130.5234496995381
sg41
g37
sg42
I40
sg43
F21.200441010116393
sba(ibiiots
Biot
p168
(dp169
g3
(lp170
(lp171
F5.046934084818767
aF2.9877344707556035
aF-9.702007259074154
aF6.153272565375991
aF-9.794946395321574
aa(lp172
F-3.602828720550117
aF-5.598384037503525
aF-7.943500617139798
aF-2.3264540932681195
aF-4.531891548803521
aa(lp173
F-9.53958801503226
aF-9.968805179299943
aF-0.20337599261628708
aF-9.054313368666348
aF4.143770067704022
aa(lp174
F-8.292842962062712
aF-6.832512694516551
aF7.689894902461494
aF-8.964090003125213
aF9.699088305725384
aa(lp175
F-0.8014180154918883
aF1.4488012070971306
aF9.79251809071669
aF-2.1237240311184378
aF7.950795224190137
aa(lp176
F7.293491042692599
aF8.63913824960792
aF4.5211754256965335
aF6.315849452395881
aF0.21539117217396295
aa(lp177
F9.896252585625602
aF9.324027983859365
aF-4.154704550044476
aF9.999459478406235
aF-7.682206825668407
aasg14
I7
sg15
F16.471690511870158
sg16
F8.570098684794086
sg17
F3.0
sg18
I1336
sg19
(lp178
(lp179
F-8.632986525154232
aF-9.543240682926253
aF-2.4230260305808597
aF-7.882717598404193
aF2.0147022392345972
aa(lp180
F-9.328431015469814
aF-8.286018112979583
aF6.074602698572118
aF-9.725616245355152
aF8.914143760893877
aa(lp181
F-2.999376685822051
aF-0.7892548999927815
aF9.997931696387376
aF-4.244927493136937
aF9.101053215205381
aa(lp182
F5.588269464384026
aF7.301833350554515
aF6.392614206183316
aF4.432278242153872
aF2.4346839708145094
aa(lp183
F9.967834727986066
aF9.894492157878235
aF-2.0264721668422543
aF9.771888059103524
aF-6.065051962101835
aa(lp184
F6.841417134641245
aF5.036396559462073
aF-8.919583665736747
aF7.7530668573584895
aF-9.997680063042102
aa(lp185
F-1.436727100565237
aF-3.614208371996204
aF-9.096066737982946
aF-0.10397182171960714
aF-6.401851161004427
aasg30
(lp186
F1.475187179932981
aF1.7008068321145533
aF3.3302718188124536
aF1.3414129125327663
aF3.7778689878288083
asg32
(lp187
g34
ag35
ag37
ag36
ag35
asg38
I10
sg39
F598.4935654411267
sg40
F616.3871374894821
sg41
g36
sg42
I50
sg43
F28.833075891700897
sba(ibiiots
Biot
p188
(dp189
g3
(lp190
(lp191
F8.363783459072163
aF6.413574876789314
aF-9.347960966655574
aF9.363444800307056
aF4.356792325852516
aa(lp192
F-8.929032414971172
aF-9.851299683462965
aF7.749971270767309
aF-1.6412576159959948
aF-9.973508123125706
aa(lp193
F0.5652489558989962
aF3.437724806673639
aF1.5979896958882738
aF-7.722187184311062
aF5.616715797273178
aasg14
I3
sg15
F-17.231883737680022
sg16
F6.42802485818127
sg17
F3.0
sg18
F1612.0
sg19
(lp194
(lp195
F-5.48152590523395
aF-7.672421866647906
aF3.551848218306039
aF3.51082632318985
aF-9.001019977168845
aa(lp196
F-4.502485994691611
aF-1.718107839049251
aF6.319647561556051
aF-9.864394225594147
aF0.7274171553830469
aa(lp197
F9.984011899925555
aF9.390529705697155
aF-9.871495779862084
aF6.353567902404285
aF8.273602821785799
aasg30
(lp198
F3.1256505904495717
aF3.420026834600247
aF6.050201202753653
aF2.1867696894855455
aF3.665500346160183
asg32
(lp199
g36
ag35
ag35
ag37
ag37
asg38
I10
sg39
F276.0728304619441
sg40
F382.40557496774363
sg41
g37
sg42
I53
sg43
F24.38207980400558
sba(ibiiots
Biot
p200
(dp201
g3
(lp202
(lp203
F1.8257641755490825
aF-5.059299085525923
aF10.99587040704136
aF-4.56963920888171
aF-2.3986291971475557
aa(lp204
F10.847422973927106
aF-9.767471154971307
aF0.30138678065246616
aF10.005918123823069
aF-10.735295895996126
aa(lp205
F-1.825764175549081
aF5.059299085525926
aF-10.99587040704136
aF4.569639208881703
aF2.3986291971475544
aa(lp206
F-10.847422973927106
aF9.767471154971307
aF-0.3013867806524675
aF-10.005918123823063
aF10.735295895996124
aasg14
I4
sg15
F-2.795247606682362
sg16
F10.051176285854856
sg17
F3.0
sg18
I2870
sg19
(lp207
(lp208
F10.847422973927106
aF-9.76747115497131
aF0.3013867806524557
aF10.005918123823069
aF-10.735295895996126
aa(lp209
F-1.8257641755490817
aF5.059299085525927
aF-10.99587040704136
aF4.569639208881711
aF2.398629197147555
aa(lp210
F-10.847422973927106
aF9.767471154971307
aF-0.30138678065244734
aF-10.005918123823072
aF10.735295895996126
aa(lp211
F1.8257641755490805
aF-5.059299085525925
aF10.99587040704136
aF-4.569639208881721
aF-2.3986291971475633
aasg30
(lp212
F3.8314792755447677
aF1.001059804844171
aF5.208123120700599
aF3.236322620915293
aF0.7429596894016364
asg32
(lp213
g35
ag34
ag37
ag35
ag35
asg38
I11
sg39
F561.1571441931367
sg40
F422.5398271750011
sg41
g35
sg42
I55
sg43
F11.8263656832481
sba(ibiiots
Biot
p214
(dp215
g3
(lp216
(lp217
F9.440515301630146
aF-8.723842901804662
aF-9.14383060615478
aF8.336499249865877
aF-9.225211329966129
aa(lp218
F-0.21928552685504943
aF-7.344776575449517
aF1.0247543823528402
aF7.82874061440836
aF-6.52131713379528
aa(lp219
F-9.576041210467496
aF4.184521338402788
aF9.77716364456924
aF-3.498071461054775
aF5.194815689863599
aa(lp220
F-5.699033418883549
aF9.930952989231653
aF5.0178650635607465
aF-9.990667672416217
aF9.731889795422218
aa(lp221
F6.053844854575945
aF1.9531451496197425
aF-6.675952484328046
aF-2.676500730803248
aF0.819822978475593
aasg14
I5
sg15
F2.180748519582532
sg16
F6.881028337843825
sg17
F3.0
sg18
F2920.0
sg19
(lp222
(lp223
F-3.2979798118980423
aF-4.888206728917305
aF4.048501185123592
aF5.522932215498001
aF-3.8594657554465464
aa(lp224
F-9.997595403781446
aF6.786328687643126
aF9.947355349832872
aF-6.221802021304841
aF7.581056841923038
aa(lp225
F-2.8808739534086216
aF9.082388516709234
aF2.099302519246224
aF-9.36821733593719
aF8.544816554399922
aa(lp226
F8.217117383270637
aF-1.1731038852850644
aF-8.649915040270425
aF0.4319252936996643
aF-2.30006978367112
aa(lp227
F7.959331785817473
aF-9.807406590149961
aF-7.445244013932263
aF9.635161848044364
aF-9.966337857205295
aasg30
(lp228
F2.4285828719882856
aF4.723348553168106
aF5.65090085896654
aF1.5073807360283393
aF4.837852272478087
asg32
(lp229
g37
ag36
ag35
ag35
ag35
asg38
I10
sg39
F636.8659741288544
sg40
F641.5751965944727
sg41
g37
sg42
I53
sg43
F10.000000000000028
sba(ibiiots
Biot
p230
(dp231
g3
(lp232
(lp233
F-7.472031984093368
aF4.010350940260088
aF1.9368513708998094
aF5.7052651140247335
aF-0.2787394828455279
aa(lp234
F-2.858100423128222
aF6.922216793481337
aF7.761997601587077
aF5.608025497329015
aF7.995142544114083
aa(lp235
F7.472031984093368
aF-4.010350940260086
aF-1.9368513708998087
aF-5.7052651140247335
aF0.2787394828455289
aa(lp236
F2.858100423128223
aF-6.9222167934813355
aF-7.761997601587078
aF-5.608025497329016
aF-7.995142544114083
aasg14
I4
sg15
F-28.488811225140147
sg16
F7.587079086975539
sg17
F3.0
sg18
I834
sg19
(lp237
(lp238
F-2.8581004231282217
aF6.9222167934813355
aF7.761997601587076
aF5.608025497329015
aF7.995142544114083
aa(lp239
F7.472031984093368
aF-4.0103509402600865
aF-1.9368513708998074
aF-5.7052651140247335
aF0.2787394828455284
aa(lp240
F2.8581004231282225
aF-6.922216793481337
aF-7.761997601587077
aF-5.608025497329015
aF-7.995142544114083
aa(lp241
F-7.472031984093368
aF4.010350940260088
aF1.9368513708998047
aF5.705265114024733
aF-0.2787394828455294
aasg30
(lp242
F4.192694521902138
aF0.37073436363146556
aF0.0901771875800502
aF0.6396340312903355
aF6.093976731235753
asg32
(lp243
g35
ag34
ag37
ag36
ag35
asg38
I8
sg39
F167.67711746743822
sg40
F1124.169958057658
sg41
g35
sg42
I41
sg43
F25.72686562849757
sba(ibiiots
Biot
p244
(dp245
g3
(lp246
(lp247
F2.1196036076480724
aF10.411049475318162
aF0.721242658016271
aF10.9454786563648
aF7.661891295713948
aa(lp248
F10.79385383199371
aF-3.5510630552663276
aF-10.976329487959882
aF-1.09384504527041
aF-7.892744882020629
aa(lp249
F-2.1196036076480707
aF-10.411049475318164
aF-0.7212426580162674
aF-10.945478656364799
aF-7.661891295713953
aa(lp250
F-10.79385383199371
aF3.551063055266322
aF10.976329487959882
aF1.0938450452704087
aF7.892744882020625
aasg14
I4
sg15
F10.268180276585175
sg16
F7.712426951942426
sg17
F3.0
sg18
I3794
sg19
(lp251
(lp252
F10.79385383199371
aF-3.551063055266328
aF-10.976329487959882
aF-1.0938450452704083
aF-7.892744882020629
aa(lp253
F-2.1196036076480715
aF-10.411049475318162
aF-0.7212426580162669
aF-10.945478656364799
aF-7.661891295713948
aa(lp254
F-10.79385383199371
aF3.5510630552663227
aF10.976329487959882
aF1.0938450452704094
aF7.892744882020625
aa(lp255
F2.11960360764807
aF10.411049475318164
aF0.7212426580162682
aF10.9454786563648
aF7.661891295713953
aasg30
(lp256
F6.19738240263036
aF1.6198010121390607
aF2.7962711159563436
aF1.3906944516709092
aF2.0913279135530627
asg32
(lp257
g35
ag35
ag37
ag35
ag35
asg38
I11
sg39
F608.3144182771089
sg40
F1125.3176768494345
sg41
g35
sg42
I55
sg43
F34.304729747975955
sba(ibiiots
Biot
p258
(dp259
g3
(lp260
(lp261
F8.94508086481926
aF-9.098414652866769
aF-7.645801689361396
aF10.916106517244899
aF7.8890461881799325
aa(lp262
F10.967451967754293
aF-2.9959872097262603
aF-0.7736460132851799
aF7.490630588142886
aF10.97077671153145
aa(lp263
F7.8580304053257
aF4.508295945534115
aF6.460507230524885
aF0.5602053577629102
aF8.919158884955586
aa(lp264
F1.0717490839651607
aF9.903097323750702
aF10.6717173406323
aF-6.632346185503372
aF2.6941674906995314
aa(lp265
F-6.216015544946998
aF10.664129403517187
aF9.889512304130742
aF-10.72154923825534
aF-4.791454814791229
aa(lp266
F-10.595237417060796
aF6.435296816781386
aF4.479894550839935
aF-9.794020245680652
aF-10.035102161352523
aa(lp267
F-10.016829948784407
aF-0.8046826708839221
aF-3.0259156512708913
aF-4.283760331741517
aF-10.583213678879467
aa(lp268
F-4.751436422807319
aF-7.668142193790932
aF-9.11586629084557
aF3.230918650112441
aF-6.17932189674021
aa(lp269
F2.737207011735079
aF-10.943592762315493
aF-10.940401781364816
aF9.233814887917731
aF1.1159432763969332
aasg14
I9
sg15
F18.272699571656286
sg16
F10.090974056400723
sg17
F3.0
sg18
I2168
sg19
(lp270
(lp271
F6.401994089488391
aF6.182139662325601
aF7.908332095136016
aF-1.355956674884355
aF7.6656995923897036
aa(lp272
F-0.8455751504168516
aF10.584141941563173
aF10.972760447860326
aF-8.055461091208755
aF0.8012854333626632
aa(lp273
F-7.697490379921032
aF10.033706576708363
aF8.902912238382207
aF-10.985725736478848
aF-6.43805908523041
aa(lp274
F-10.94766431258375
aF4.788388392384403
aF2.6672924477169455
aF-8.775647216908782
aF-10.664964206787465
aa(lp275
F-9.075304443652415
aF-2.6974699377454003
aF-4.816383122888655
aF-2.4593458340921384
aF-9.901614048114274
aa(lp276
F-2.956508764762058
aF-8.921152104965108
aF-10.046419502158699
aF5.007710797080587
aF-4.5051886321460435
aa(lp277
F4.545670223095355
aF-10.970528054709998
aF-10.575624542852958
aF10.131603891793135
aF2.9992646143977564
aa(lp278
F9.920879594069266
aF-7.8866720038177816
aF-6.156377324971679
aF10.514806925300892
aF9.10032861475161
aa(lp279
F10.653999144683105
aF-1.1125544717432663
aF1.143507263776481
aF5.978014939398267
aF10.943247717376432
aasg30
(lp280
F4.574542252495868
aF2.6509520718915183
aF2.8564099821970816
aF5.319310702558276
aF4.424687170417378
asg32
(lp281
g35
ag35
ag36
ag34
ag35
asg38
I11
sg39
F91.12471800237674
sg40
F233.30013200854359
sg41
g35
sg42
I55
sg43
F28.973967796572733
sba(ibiiots
Biot
p282
(dp283
g3
(lp284
(lp285
F-10.65365796064447
aF10.98825767764238
aF-9.974878096542033
aF1.7719125668529723
aF-10.142752830903252
aa(lp286
F-2.9551883997962713
aF5.934179866884934
aF-9.003202390320013
aF-8.51591823134829
aF-1.3844503572829774
aa(lp287
F7.698469560848204
aF-5.054077810757469
aF0.971675706222025
aF-10.287830798201256
aF8.75830247362028
aa(lp288
F10.65365796064447
aF-10.98825767764238
aF9.974878096542032
aF-1.7719125668529738
aF10.142752830903254
aa(lp289
F2.9551883997962634
aF-5.934179866884935
aF9.003202390320007
aF8.515918231348289
aF1.384450357282969
aa(lp290
F-7.698469560848196
aF5.054077810757468
aF-0.9716757062220335
aF10.287830798201256
aF-8.758302473620285
aasg14
I6
sg15
F-12.519104196702141
sg16
F11.207237148564122
sg17
F3.0
sg18
I2586
sg19
(lp291
(lp292
F2.738534655175415
aF0.5081271590195349
aF-4.637004093067635
aF-10.856349563984594
aF4.257295504331835
aa(lp293
F10.595605764736133
aF-9.262046712657927
aF6.319995784724546
aF-6.96269607817186
aF10.912529368034665
aa(lp294
F7.857071109560716
aF-9.770173871677462
aF10.956999877792184
aF3.8936534858127425
aF6.655233863702828
aa(lp295
F-2.7385346551754135
aF-0.5081271590195362
aF4.637004093067636
aF10.856349563984594
aF-4.257295504331833
aa(lp296
F-10.595605764736135
aF9.262046712657925
aF-6.3199957847245525
aF6.96269607817186
aF-10.912529368034665
aa(lp297
F-7.857071109560725
aF9.770173871677464
aF-10.956999877792182
aF-3.893653485812741
aF-6.655233863702822
aasg30
(lp298
F1.1894757492973573
aF4.033254663401196
aF0.5027224940224814
aF5.488472966994673
aF1.3352768139198254
asg32
(lp299
g35
ag34
ag35
ag35
ag36
asg38
I11
sg39
F427.24061890503117
sg40
F706.8166026052698
sg41
g36
sg42
I56
sg43
F19.70357451448039
sba(ibiiots
Biot
p300
(dp301
g3
(lp302
(lp303
F-4.17034936263738
aF-8.60041430169179
aF-3.290509293064387
aF-9.986704268788056
aF-9.11323928557867
aa(lp304
F-9.036908195184761
aF-3.308641619113999
aF3.5492453057210716
aF-7.318903795082528
aF-9.627438945000273
aa(lp305
F-9.674997249157906
aF3.5312812485028773
aF8.728268580491877
aF-1.2265068951026832
aF-5.636852924990716
aa(lp306
F-5.786047564632861
aF8.718878374125751
aF9.823237982550474
aF5.439786212201485
aF0.9912792252640884
aa(lp307
F0.8102580801396979
aF9.826815408955644
aF6.321805159444271
aF9.560742894327044
aF7.155580809176384
aa(lp308
F7.027434964199408
aF6.3366763010470795
aF-0.13767055680414822
aF9.208121720375487
aF9.971706607052656
aa(lp309
F9.956396927270234
aF-0.1184640724339627
aF-6.532728689486084
aF4.54691805658657
aF8.121960060314601
aa(lp310
F8.226650115045063
aF-6.518173789841643
aF-9.871050465165334
aF-2.2418390992445123
aF2.4718581358239096
aa(lp311
F2.647562284958502
aF-9.867957549549967
aF-8.590598023687733
aF-7.9816148252728105
aF-4.334853682061945
aasg14
I9
sg15
F-20.487608693829618
sg16
F11.869122624979141
sg17
F3.0
sg18
I2332
sg19
(lp312
(lp313
F-9.088904565102991
aF5.102242040442153
aF9.443121760956856
aF0.5154976699951127
aF-4.116900499621721
aa(lp314
F-4.281855937768401
aF9.436783913827142
aF9.3489495538171
aF6.814223891121172
aF2.7041485462696073
aa(lp315
F2.5287206703760186
aF9.355749715761531
aF4.88029994844562
aF9.924499021928794
aF8.259896434097925
aa(lp316
F8.156080773251706
aF4.897056248115016
aF-1.8718962412958964
aF8.390990761855397
aF9.950746981888337
aa(lp317
F9.967120037581985
aF-1.853024262742373
aF-7.74821137592566
aF2.9312446688352285
aF6.98553242661908
aa(lp318
F7.114433064127292
aF-7.736054126991893
aF-9.999052295982317
aF-3.9000633818887076
aF0.7517096133896237
aa(lp319
F0.9328237918512954
aF-9.99929828855717
aF-7.571225519660965
aF-8.906488431850514
aF-5.833846482266606
aa(lp320
F-5.685264099813573
aF-7.583759651084774
aF-1.6007381778914485
aF-9.745468559956393
aF-9.689680972888691
aa(lp321
F-9.643153734503318
aF-1.6196955887696405
aF5.118752347536693
aF-6.0244356400400925
aF-9.01160604748754
aasg30
(lp322
F5.418555915347326
aF0.8114318153472261
aF1.5114843224018346
aF0.3275589809574582
aF6.134863875797785
asg32
(lp323
g35
ag35
ag35
ag36
ag36
asg38
I10
sg39
F135.6096113473445
sg40
F925.1016545600525
sg41
g36
sg42
I53
sg43
F35.21011759223209
sba(ibiiots
Biot
p324
(dp325
g3
(lp326
(lp327
F-9.845833654408388
aF2.8567488196370205
aF0.5386445334803437
aF-2.7931912109047112
aF4.004571635951308
aa(lp328
F-5.725213059509233
aF-4.756365873440155
aF7.441681637781027
aF4.814543041902653
aF9.310988660446158
aa(lp329
F1.7491596981748758
aF-9.583265945464651
aF9.985482565532411
aF9.601983277392472
aF9.163154806753742
aa(lp330
F8.19889842742456
aF-8.796418798464163
aF6.679923233234996
aF8.764711934665437
aF3.6476691413892053
aa(lp331
F9.845833654408388
aF-2.856748819637005
aF-0.5386445334803515
aF2.793191210904713
aF-4.004571635951316
aa(lp332
F5.725213059509226
aF4.756365873440154
aF-7.441681637781025
aF-4.814543041902652
aF-9.310988660446158
aa(lp333
F-1.7491596981748834
aF9.583265945464651
aF-9.985482565532411
aF-9.60198327739247
aF-9.163154806753742
aa(lp334
F-8.198898427424554
aF8.796418798464165
aF-6.679923233234998
aF-8.764711934665439
aF-3.647669141389207
aasg14
I8
sg15
F1.9313000523715786
sg16
F10.754639660047916
sg17
F3.0
sg18
F724.0
sg19
(lp335
(lp336
F1.7491596981748674
aF-9.583265945464651
aF9.985482565532411
aF9.601983277392472
aF9.163154806753745
aa(lp337
F8.19889842742456
aF-8.796418798464172
aF6.679923233234996
aF8.764711934665437
aF3.647669141389205
aa(lp338
F9.845833654408386
aF-2.856748819637021
aF-0.538644533480352
aF2.7931912109047117
aF-4.004571635951316
aa(lp339
F5.725213059509234
aF4.75636587344017
aF-7.441681637781027
aF-4.8145430419026525
aF-9.310988660446158
aa(lp340
F-1.7491596981748665
aF9.583265945464655
aF-9.985482565532411
aF-9.601983277392472
aF-9.163154806753742
aa(lp341
F-8.198898427424565
aF8.796418798464172
aF-6.679923233234998
aF-8.764711934665439
aF-3.6476691413892066
aa(lp342
F-9.845833654408384
aF2.8567488196370228
aF0.5386445334803508
aF-2.7931912109047135
aF4.004571635951315
aa(lp343
F-5.725213059509242
aF-4.756365873440169
aF7.441681637781025
aF4.814543041902652
aF9.310988660446158
aasg30
(lp344
F1.5662897419240656
aF5.813147716783896
aF3.015156181414738
aF2.678180713503144
aF3.3732813539023208
asg32
(lp345
g35
ag37
ag34
ag37
ag37
asg38
I10
sg39
F269.75453703767187
sg40
F135.02511679516107
sg41
g37
sg42
I52
sg43
F21.562660390875198
sba(ibiiots
Biot
p346
(dp347
g3
(lp348
(lp349
F-9.784761776645247
aF9.999433191564805
aF4.255046047427722
aF3.6114650824725696
aF3.6766138958957164
aa(lp350
F-6.16910711861992
aF7.591572674589013
aF-2.557392328358357
aF-3.227510120222184
aF-3.1612162860712685
aa(lp351
F0.3331413221962086
aF1.6315309322407865
aF-8.173198411455758
aF-8.556297467885495
aF-8.51987823477992
aa(lp352
F6.67950923590335
aF-5.091922265749467
aF-9.964674122850733
aF-9.881498137671153
aF-9.89199446953571
aa(lp353
F9.900460543655093
aF-9.432808445183124
aF-7.093568067146804
aF-6.58303600822154
aF-6.635536554723068
aa(lp354
F8.488876331668017
aF-9.359978719127142
aF-0.9033026765973522
aF-0.20429816822935434
aF-0.2742373401812054
aa(lp355
F3.1052525407419123
aF-4.90751092581536
aF5.7096280754230015
aF6.270033055198574
aF6.215380573639985
aa(lp356
F-3.731353425035169
aF1.8412357705941171
aF9.650960395505157
aF9.81054612844372
aF9.79675284079433
aa(lp357
F-8.822017653864215
aF7.728447786886356
aF9.076501088053101
aF8.76059563611484
aF8.794115574961117
aasg14
I9
sg15
F-3.1714555424692055
sg16
F10.444046900840341
sg17
F3.0
sg18
F2945.0
sg19
(lp358
(lp359
F2.063598065104284
aF-0.10646993675257743
aF-9.04956259353289
aF-9.32509088202798
aF-9.299597317115753
aa(lp360
F7.870331464366227
aF-6.509072462834732
aF-9.667458015365456
aF-9.464839059585925
aF-9.487186705903799
aa(lp361
F9.994449302460108
aF-9.866007643274026
aF-5.761842389980577
aF-5.175883851194526
aF-5.235615996663945
aa(lp362
F7.442053236001598
aF-8.606528198964135
aF0.8398033254214836
aF1.5349249347122935
aF1.465757624805322
aa(lp363
F1.4074377512091554
aF-3.319958559452502
aF7.048495731484495
aF7.527525284876737
aF7.481286963546708
aa(lp364
F-5.285733499302302
aF3.520056587256378
aF9.959118649481592
aF9.997912895122568
aF9.996238986801503
aa(lp365
F-9.50565130110588
aF8.712998135716711
aF8.209759268111425
aF7.790165947315707
aF7.833839692310452
aa(lp366
F-9.277769215575386
aF9.829031022287227
aF2.6189622838809523
aF1.9373137747091793
aF2.005899742357082
aa(lp367
F-4.708715803157813
aF6.345951056017639
aF-4.19727625950102
aF-4.822029043928046
aF-4.760622990137563
aasg30
(lp368
F1.9089153022215644
aF4.853301927974377
aF5.9739316461160525
aF6.043953971283115
aF6.036958036960786
asg32
(lp369
g34
ag35
ag35
ag35
ag37
asg38
I10
sg39
F76.6253961446162
sg40
F688.5185724882058
sg41
g37
sg42
I52
sg43
F28.27748530674608
sba(ibiiots
Biot
p370
(dp371
g3
(lp372
(lp373
F-11.128252891607513
aF-11.997931701842845
aF-11.1345787417542
aF8.599053552124023
aF-2.0425428170276407
aa(lp374
F0.8316244027078338
aF-3.9194495940676815
aF-7.696277075549573
aF-5.303054020660822
aF-11.877318943313227
aa(lp375
F11.64222503835479
aF9.575578635517044
aF6.378017922227932
aF-11.876521181069197
aF-5.298043985162921
aa(lp376
F6.363666375670455
aF9.837482652764546
aF11.638108932342409
aF-2.0370397373479783
aF8.602947686590598
aa(lp377
F-7.709262925125593
aF-3.4956799923710737
aF0.8147289627334187
aF10.617561386953987
aF10.614958058913189
aasg14
I5
sg15
F-32.429754293455275
sg16
F9.050341039905305
sg17
F3.0
sg18
I3594
sg19
(lp378
(lp379
F4.4902101933460745
aF-0.22278886398224385
aF-4.4745006697591885
aF-8.369962843866347
aF-11.824889802472105
aa(lp380
F11.971148685603268
aF11.341865581973835
aF9.206916920249151
aF-10.764646675760105
aF-1.7115182496288992
aa(lp381
F2.908366578735364
aF7.232447289474674
aF10.164688258069663
aF1.7170453213630412
aF10.767113351835718
aa(lp382
F-10.17367928820057
aF-6.871967335236441
aF-2.924794091715153
aF11.825839044586447
aF8.36596026178618
aa(lp383
F-9.196046169484143
aF-11.479556672229837
aF-11.9723104168445
aF5.5917251536769665
aF-5.596665561520891
aasg30
(lp384
F3.478284833276427
aF3.076201135088572
aF2.712662325568574
aF0.7250737408119894
aF1.6950163182066122
asg32
(lp385
g35
ag35
ag35
ag36
ag35
asg38
I12
sg39
F184.64628076270225
sg40
F346.04557066704876
sg41
g35
sg42
I60
sg43
F34.40587799957899
sba(ibiiots
Biot
p386
(dp387
g3
(lp388
(lp389
F-7.8688909517256995
aF6.551124300270995
aF-6.829113979075934
aF-7.859742334786036
aF-4.657502347347378
aa(lp390
F-4.544206156635547
aF1.3855944727579472
aF-1.8824571145651572
aF-4.503056216263806
aF1.30597845171722
aa(lp391
F1.4424129747923902
aF-4.591597804947518
aF4.166917597072171
aF1.491459161617296
aF6.50443478593288
aa(lp392
F6.584086148129862
aF-7.879094361477252
aF7.775368493635721
aF6.612297990348582
aF7.892681438120399
aa(lp393
F7.868890951725697
aF-6.551124300270995
aF6.82911397907593
aF7.859742334786035
aF4.657502347347367
aa(lp394
F4.54420615663556
aF-1.3855944727579483
aF1.8824571145651583
aF4.503056216263807
aF-1.3059784517172048
aa(lp395
F-1.4424129747923822
aF4.591597804947517
aF-4.16691759707217
aF-1.4914591616172952
aF-6.504434785932876
aa(lp396
F-6.584086148129866
aF7.879094361477252
aF-7.775368493635721
aF-6.612297990348582
aF-7.892681438120399
aasg14
I8
sg15
F-14.99336420920844
sg16
F10.211101820613903
sg17
F3.0
sg18
I2418
sg19
(lp397
(lp398
F1.4424129747923837
aF-4.591597804947519
aF4.166917597072166
aF1.4914591616172896
aF6.504434785932877
aa(lp399
F6.584086148129867
aF-7.879094361477252
aF7.775368493635721
aF6.612297990348582
aF7.892681438120399
aa(lp400
F7.868890951725699
aF-6.551124300270995
aF6.82911397907593
aF7.859742334786035
aF4.657502347347372
aa(lp401
F4.544206156635553
aF-1.3855944727579477
aF1.8824571145651579
aF4.503056216263806
aF-1.3059784517172195
aa(lp402
F-1.4424129747923966
aF4.591597804947518
aF-4.166917597072171
aF-1.4914591616172956
aF-6.504434785932885
aa(lp403
F-6.584086148129859
aF7.879094361477252
aF-7.775368493635721
aF-6.612297990348582
aF-7.892681438120402
aa(lp404
F-7.8688909517256995
aF6.551124300270995
aF-6.829113979075931
aF-7.859742334786035
aF-4.6575023473473784
aa(lp405
F-4.544206156635548
aF1.3855944727579488
aF-1.8824571145651587
aF-4.503056216263807
aF1.3059784517172184
aasg30
(lp406
F2.1153002497842985
aF5.686920826353774
aF2.4818707545371423
aF2.121536777391419
aF2.8833865470527344
asg32
(lp407
g36
ag35
ag36
ag35
ag35
asg38
I8
sg39
F90.22035705330129
sg40
F446.35615441116744
sg41
g35
sg42
I43
sg43
F22.544434822927826
sba(ibiiots
Biot
p408
(dp409
g3
(lp410
(lp411
F3.58583895343658
aF-2.110498548748593
aF7.991225535453963
aF-7.893336316760353
aF-7.712868303902999
aa(lp412
F-7.986167352430407
aF-5.627515640449326
aF-4.320013493884298
aF5.074245802218537
aF2.0169377820213095
aa(lp413
F4.4003283989938256
aF7.7380141891979175
aF-3.6712120415696687
aF2.8190905145418084
aF5.695930521881694
aasg14
I3
sg15
F-30.430807912653265
sg16
F7.968243445657807
sg17
F3.0
sg18
F3508.0
sg19
(lp414
(lp415
F-7.1513466564009365
aF-7.716592245008808
aF-0.3745856931444762
aF1.302014512404568
aF-2.124067448705071
aa(lp416
F0.470245700644583
aF5.686041480370875
aF-6.7333114745017975
aF6.184822514726478
aF7.741573611576329
aa(lp417
F6.681100955756351
aF2.0305507646379324
aF7.10789716764627
aF-7.486837027131044
aF-5.617506162871255
aasg30
(lp418
F2.141285047233659
aF2.8730416210886145
aF1.0821132189864087
aF4.340344549721134
aF3.9081342919064967
asg32
(lp419
g37
ag35
ag37
ag35
ag35
asg38
I8
sg39
F464.37897555053837
sg40
F1157.145093025671
sg41
g37
sg42
I42
sg43
F17.942977086165076
sba(ibiiots
Biot
p420
(dp421
g3
(lp422
(lp423
F-5.019562675797945
aF7.999335726349752
aF-8.015258364425996
aF3.462839284453771
aF-8.010704794927806
aa(lp424
F4.980411777622288
aF9.196587234577354
aF1.1708575671785857
aF9.855861657992198
aF-9.189120960622416
aa(lp425
F9.999974453420236
aF1.197251508227611
aF9.18611593160459
aF6.393022373538435
aF-1.1784161656945997
aa(lp426
F5.019562675797938
aF-7.999335726349752
aF8.015258364425996
aF-3.4628392844537697
aF8.010704794927806
aa(lp427
F-4.980411777622287
aF-9.196587234577356
aF-1.1708575671785846
aF-9.855861657992197
aF9.189120960622416
aa(lp428
F-9.999974453420236
aF-1.1972515082276123
aF-9.18611593160459
aF-6.393022373538435
aF1.178416165694601
aasg14
I6
sg15
F20.545256311343774
sg16
F10.103505997258623
sg17
F3.0
sg18
I2964
sg19
(lp429
(lp430
F8.648930023056966
aF6.000885596072005
aF5.9796014375122954
aF9.38129756963522
aF-5.985700350712575
aa(lp431
F8.671533804657697
aF-3.9271851543833325
aF9.931218080244772
aF1.691741995257929
aF3.94462367926901
aa(lp432
F0.02260378160072785
aF-9.928070750455332
aF3.9516166427324806
aF-7.689555574377299
aF9.930324029981582
aa(lp433
F-8.64893002305697
aF-6.000885596072006
aF-5.9796014375122954
aF-9.38129756963522
aF5.985700350712576
aa(lp434
F-8.671533804657699
aF3.9271851543833316
aF-9.931218080244772
aF-1.6917419952579302
aF-3.9446236792690086
aa(lp435
F-0.022603781600729074
aF9.928070750455332
aF-3.951616642732482
aF7.689555574377299
aF-9.93032402998158
aasg30
(lp436
F3.08654015423798
aF4.539583823817796
aF2.682556702299913
aF3.9660063542505903
aF1.3998881349215782
asg32
(lp437
g35
ag35
ag37
ag35
ag37
asg38
I10
sg39
F98.61355619676712
sg40
F1051.2940254568823
sg41
g35
sg42
I54
sg43
F30.051891919039935
sba(ibiiots
Biot
p438
(dp439
g3
(lp440
(lp441
F8.88474661449705
aF-8.607470475537134
aF8.218599168021568
aF6.046387815076306
aF-0.0939706878379238
aa(lp442
F0.4679603698277851
aF-8.712089693749554
aF9.042956522484152
aF9.921084584569254
aF-8.706857001880785
aa(lp443
F-8.416786244669266
aF-0.10461921821242588
aF0.824357354462586
aF3.8746967694929477
aF-8.612886314042862
aa(lp444
F-8.884746614497052
aF8.607470475537134
aF-8.218599168021566
aF-6.046387815076307
aF0.09397068783791815
aa(lp445
F-0.4679603698277863
aF8.71208969374956
aF-9.042956522484154
aF-9.921084584569256
aF8.706857001880785
aa(lp446
F8.41678624466927
aF0.1046192182124271
aF-0.8243573544625827
aF-3.874696769492949
aF8.612886314042857
aasg14
I6
sg15
F9.717826542268655
sg16
F7.980546851899876
sg17
F3.0
sg18
I1922
sg19
(lp447
(lp448
F-4.589256758581196
aF-5.090329263687817
aF5.696896323033727
aF7.964998078449033
aF-9.999558465743739
aa(lp449
F-9.989044653632831
aF4.909123462295769
aF-4.269067501511462
aF-1.2538264097642504
aF-4.918398229993129
aa(lp450
F-5.399787895051641
aF9.999452725983588
aF-9.965963824545193
aF-9.218824488213285
aF5.081160235750607
aa(lp451
F4.589256758581194
aF5.090329263687819
aF-5.6968963230337275
aF-7.964998078449032
aF9.999558465743739
aa(lp452
F9.989044653632831
aF-4.90912346229576
aF4.269067501511461
aF1.2538264097642449
aF4.91839822999313
aa(lp453
F5.3997878950516345
aF-9.999452725983588
aF9.965963824545193
aF9.218824488213283
aF-5.081160235750613
aasg30
(lp454
F1.4997551171255639
aF3.630501240210084
aF0.41684130976138073
aF0.10148543009973326
aF2.6031630087806668
asg32
(lp455
g35
ag35
ag34
ag36
ag35
asg38
I10
sg39
F434.68858684689275
sg40
F507.9552853822689
sg41
g35
sg42
I50
sg43
F15.65121250474166
sba(ibiiots
Biot
p456
(dp457
g3
(lp458
(lp459
F-7.039351984147527
aF-4.447036713872146
aF0.44476788716969745
aF-7.903250465166161
aF-4.534575453184876
aa(lp460
F3.8009898241482145
aF6.650102590597623
aF7.987626776868246
aF1.2404160934343211
aF-6.59072268111572
aa(lp461
F7.039351984147527
aF4.447036713872147
aF-0.44476788716969645
aF7.903250465166161
aF4.534575453184881
aa(lp462
F-3.8009898241482136
aF-6.650102590597623
aF-7.987626776868246
aF-1.2404160934343202
aF6.590722681115716
aasg14
I4
sg15
F9.594691695838893
sg16
F9.4378440717374
sg17
F3.0
sg18
I2352
sg19
(lp463
(lp464
F3.800989824148215
aF6.650102590597624
aF7.987626776868246
aF1.2404160934343216
aF-6.59072268111572
aa(lp465
F7.039351984147527
aF4.447036713872147
aF-0.44476788716969695
aF7.903250465166161
aF4.534575453184876
aa(lp466
F-3.800989824148214
aF-6.650102590597623
aF-7.987626776868246
aF-1.2404160934343207
aF6.590722681115716
aa(lp467
F-7.039351984147527
aF-4.447036713872148
aF0.44476788716969595
aF-7.903250465166161
aF-4.53457545318488
aasg30
(lp468
F3.202369547991353
aF3.6886405070712507
aF4.333685901646911
aF2.8629450101669303
aF1.7391116679153469
asg32
(lp469
g35
ag37
ag37
ag35
ag35
asg38
I8
sg39
F176.28361356820295
sg40
F1032.5748007537686
sg41
g35
sg42
I43
sg43
F27.316231680670384
sba(ibiiots
Biot
p470
(dp471
g3
(lp472
(lp473
F2.0813953974367756
aF-0.47903153237552426
aF8.301104454168822
aF-6.931196769360374
aF8.065558606933948
aa(lp474
F7.663206161227706
aF6.016213711775291
aF3.4109398025855593
aF-0.8416312883475199
aF8.526928978826557
aa(lp475
F8.756014687032508
aF8.98724255770311
aF-3.4773071249141263
aF5.74095038686177
aF3.993340000314741
aa(lp476
F4.71966856151168
aF6.693666601665113
aF-8.328594699175701
aF8.960561186358502
aF-2.8794933912144813
aa(lp477
F-2.0813953974367667
aF0.4790315323755253
aF-8.301104454168822
aF6.931196769360374
aF-8.065558606933948
aa(lp478
F-7.663206161227706
aF-6.016213711775278
aF-3.41093980258556
aF0.841631288347529
aF-8.526928978826563
aa(lp479
F-8.756014687032508
aF-8.98724255770311
aF3.4773071249141254
aF-5.74095038686177
aF-3.993340000314742
aa(lp480
F-4.719668561511668
aF-6.6936666016651145
aF8.328594699175706
aF-8.960561186358502
aF2.8794933912144804
aasg14
I8
sg15
F3.81992340338655
sg16
F12.108111172109979
sg17
F3.0
sg18
I200
sg19
(lp481
(lp482
F8.75601468703251
aF8.98724255770311
aF-3.4773071249141267
aF5.740950386861771
aF3.99334000031474
aa(lp483
F4.71966856151168
aF6.693666601665112
aF-8.328594699175701
aF8.960561186358502
aF-2.879493391214482
aa(lp484
F-2.0813953974367827
aF0.4790315323755248
aF-8.301104454168822
aF6.931196769360374
aF-8.065558606933948
aa(lp485
F-7.663206161227706
aF-6.01621371177529
aF-3.4109398025855597
aF0.8416312883475204
aF-8.526928978826557
aa(lp486
F-8.756014687032511
aF-8.98724255770311
aF3.477307124914126
aF-5.74095038686177
aF-3.9933400003147415
aa(lp487
F-4.719668561511681
aF-6.693666601665124
aF8.328594699175701
aF-8.960561186358502
aF2.879493391214466
aa(lp488
F2.081395397436782
aF-0.47903153237552587
aF8.301104454168822
aF-6.931196769360375
aF8.065558606933946
aa(lp489
F7.663206161227714
aF6.01621371177529
aF3.4109398025855464
aF-0.8416312883475136
aF8.52692897882656
aasg30
(lp490
F1.8411730535900217
aF1.5545432459405188
aF3.575280413715166
aF0.7287445477374651
aF2.7188623723588745
asg32
(lp491
g37
ag35
ag37
ag36
ag36
asg38
I9
sg39
F461.5564833459323
sg40
F951.9527088688886
sg41
g36
sg42
I47
sg43
F26.416760569081855
sba(ibiiots
Biot
p492
(dp493
g3
(lp494
(lp495
F-6.113129632979682
aF8.506569495966577
aF5.441220901259604
aF2.7836791766672775
aF6.09521499626571
aa(lp496
F-8.928717342979054
aF8.405623703722004
aF-0.43986251714313085
aF7.633840189266842
aF8.925622342671133
aa(lp497
F-7.566458976558618
aF4.3715931624042375
aF-6.115129375247247
aF8.912042536625112
aF7.579631797697925
aa(lp498
F-2.6637703631818304
aF-1.7079544044486423
aF-8.929059236580422
aF6.020201134776415
aF2.6870472963576715
aa(lp499
F3.485326007637688
aF-6.988331123661157
aF-7.564983045677996
aF0.31144071488297165
aF-3.4628364981525785
aa(lp500
F8.003599604399657
aF-8.998790043463432
aF-2.661167212281392
aF-5.543046276782222
aF-7.99242061003641
aa(lp501
F8.776899996161507
aF-6.798615091517939
aF3.4878383353208204
aF-8.803880311443685
aF-8.782262292623383
aa(lp502
F5.443391335341356
aF-1.4172925800608542
aF8.004845562821117
aF-7.945280904149813
aF-5.462785844518558
aa(lp503
F-0.43714062784102237
aF4.627196881059198
aF8.776296587528636
aF-3.3689962598428957
aF0.4127888123384838
aasg14
I9
sg15
F11.961668428467501
sg16
F11.639103273482604
sg17
F3.0
sg18
F2108.0
sg19
(lp504
(lp505
F-6.605274111676645
aF2.939094318032503
aF-7.16889915563719
aF8.55868741346411
aF6.621808978617369
aa(lp506
F-1.130489544040568
aF-3.2164406028134245
aF-8.989244738353301
aF4.7670204493723745
aF1.1546712934900059
aa(lp507
F4.873263645243865
aF-7.866967218847459
aF-6.6034228036669145
aF-1.25518836251164
aF-4.852749922603318
aa(lp508
F8.596762614626169
aF-8.836452441581095
aF-1.1277859502750711
aF-6.690080589711664
aF-8.589515517602662
aa(lp509
F8.297740814250849
aF-5.671263360669189
aF4.875554483195165
aF-8.994609757021879
aF-8.30715134008418
aa(lp510
F4.1161138677706255
aF0.14757287577131845
aF8.597568788226035
aF-7.090461055069039
aF-4.137778726837048
aa(lp511
F-1.9914885029495277
aF5.897358123548589
aF8.29668510591227
aF-1.8686068237524542
aF1.9677065389852886
aa(lp512
F-7.167251270210265
aF8.887703963482608
aF4.113690255158142
aF4.227589307649494
aF7.152480046594165
aa(lp513
F-8.9893775130145
aF7.719394343076148
aF-1.99414598455911
aF8.34564941758067
aF8.990528649440376
aasg30
(lp514
F5.965116687120537
aF3.314930231131065
aF4.569156077278885
aF2.3912564501650384
aF2.8208152540307374
asg32
(lp515
g37
ag37
ag35
ag35
ag37
asg38
I9
sg39
F616.2163723574507
sg40
F525.2206276306674
sg41
g37
sg42
I45
sg43
F17.269208765612667
sba(ibiiots
Biot
p516
(dp517
g3
(lp518
(lp519
F-7.699084666269561
aF7.8134005088625
aF8.027299517353267
aF-7.7985828296932596
aF3.3283349897230248
aa(lp520
F-8.739837050811113
aF2.3665249980355236
aF2.798445076412253
aF-8.691072570836592
aF-3.559302394107986
aa(lp521
F-4.6609114239183995
aF-4.466628760945704
aF-4.069700536734844
aF-4.492449871552642
aF-8.361948708057561
aa(lp522
F2.1483129020860283
aF-8.68329196985066
aF-8.553870770259744
aF2.337789034205568
aF-8.266278876695194
aa(lp523
F7.699084666269561
aF-7.8134005088625
aF-8.027299517353267
aF7.7985828296932596
aF-3.3283349897230257
aa(lp524
F8.73983705081111
aF-2.3665249980355245
aF-2.798445076412239
aF8.691072570836594
aF3.559302394107985
aa(lp525
F4.6609114239184
aF4.466628760945703
aF4.0697005367348424
aF4.492449871552643
aF8.361948708057561
aa(lp526
F-2.148312902086027
aF8.683291969850655
aF8.553870770259742
aF-2.3377890342055516
aF8.266278876695202
aasg14
I8
sg15
F-11.58527255792104
sg16
F12.049519079275234
sg17
F3.0
sg18
I1432
sg19
(lp527
(lp528
F-4.660911423918385
aF-4.4666287609456905
aF-4.069700536734858
aF-4.4924498715526555
aF-8.361948708057556
aa(lp529
F2.1483129020860288
aF-8.68329196985066
aF-8.553870770259744
aF2.3377890342055685
aF-8.266278876695194
aa(lp530
F7.699084666269553
aF-7.813400508862492
aF-8.027299517353274
aF7.7985828296932675
aF-3.328334989723011
aa(lp531
F8.739837050811115
aF-2.366524998035524
aF-2.7984450764122535
aF8.691072570836592
aF3.5593023941079855
aa(lp532
F4.660911423918386
aF4.466628760945689
aF4.0697005367348575
aF4.492449871552656
aF8.361948708057556
aa(lp533
F-2.1483129020860434
aF8.68329196985066
aF8.553870770259747
aF-2.3377890342055676
aF8.266278876695194
aa(lp534
F-7.6990846662695525
aF7.813400508862492
aF8.027299517353276
aF-7.798582829693267
aF3.328334989723012
aa(lp535
F-8.739837050811115
aF2.3665249980355405
aF2.7984450764122544
aF-8.691072570836598
aF-3.55930239410797
aasg30
(lp536
F5.834405454199511
aF3.75650506413393
aF3.7064005636158823
aF5.856144844048321
aF4.42916898618556
asg32
(lp537
g35
ag34
ag37
ag37
ag35
asg38
I9
sg39
F206.6842474750472
sg40
F618.1852057415392
sg41
g35
sg42
I49
sg43
F26.30906402263377
sba(ibiiots
Biot
p538
(dp539
g3
(lp540
(lp541
F-2.8283009500743015
aF8.710943722443204
aF8.469285412352091
aF8.748909233800214
aF3.90008887604847
aa(lp542
F4.916586971091827
aF3.6621952643760336
aF7.661084623360789
aF3.8043601274288146
aF-3.909817022953502
aa(lp543
F8.959184622928857
aF-4.144260922935593
aF1.0839308553323266
aF-4.004949749700498
aF-8.775550957938835
aa(lp544
F6.255333519639624
aF-8.830004107760043
aF-6.30944495492135
aF-8.798450779218712
aF-7.033116032979505
aa(lp545
F-1.1589113094880492
aF-6.866574100182634
aF-8.951680024897323
aF-6.96653891629729
aF0.005398714235087001
aa(lp546
F-7.700472285088723
aF0.26752625741768044
aF-4.853117455130681
aF0.11131884209200375
aF7.039848119516958
aa(lp547
F-8.443420569009225
aF7.200173886641349
aF2.8999415439041445
aF7.105351241895464
aF8.773148304071325
aasg14
I7
sg15
F-23.855629623235785
sg16
F8.122762393976815
sg17
F3.0
sg18
I1282
sg19
(lp548
(lp549
F8.544045513444367
aF-2.2626222540290137
aF3.0448652850528646
aF-2.11106305418037
aF-8.1110607665658
aa(lp550
F7.538379968911762
aF-8.221211945059059
aF-4.723111516119947
aF-8.156398961602468
aF-8.106375937928306
aa(lp551
F0.8561605528609173
aF-7.989061359298039
aF-8.934489011737522
aF-8.059800090720236
aF-1.9974246880968491
aa(lp552
F-6.470765221986728
aF-1.7409846228329386
aF-6.4180140511545725
aF-1.894007361565857
aF5.6156280919098105
aa(lp553
F-8.925072805122696
aF5.818089044239617
aF0.931356393575658
aF5.698011541556878
aF8.999998380771222
aa(lp554
F-4.658618527694713
aF8.996022993611794
aF7.579396477735276
aF8.999311535634007
aF5.607186322402132
aa(lp555
F3.1158705195870913
aF5.399768143367639
aF8.519996422648243
aF5.523946390878046
aF-2.0079514024922087
aasg30
(lp556
F5.2734704216649915
aF1.1348829269718987
aF0.5356246226917158
aF1.117522483703905
aF2.003351166273609
asg32
(lp557
g37
ag37
ag35
ag36
ag35
asg38
I9
sg39
F535.9217926927643
sg40
F1060.2484388742896
sg41
g35
sg42
I49
sg43
F27.015783194403404
sba(ibiiots
Biot
p558
(dp559
g3
(lp560
(lp561
F8.103802750036813
aF-9.975580315137853
aF9.519361431485413
aF6.521074931353153
aF9.990451568043431
aa(lp562
F-1.022178417552036
aF-4.38293642965146
aF7.412286689603325
aF9.826105704965398
aF4.616863391686128
aa(lp563
F-9.12598116758886
aF5.592643885486389
aF-2.1070747418820894
aF3.305030773612241
aF-5.373588176357292
aa(lp564
F-8.103802750036815
aF9.975580315137853
aF-9.519361431485413
aF-6.521074931353146
aF-9.990451568043431
aa(lp565
F1.022178417552035
aF4.382936429651469
aF-7.4122866896033255
aF-9.826105704965398
aF-4.616863391686129
aa(lp566
F9.125981167588865
aF-5.592643885486388
aF2.107074741882106
aF-3.305030773612242
aF5.3735881763573055
aasg14
I6
sg15
F0.0767326798614052
sg16
F10.803890421713458
sg17
F3.0
sg18
I1418
sg19
(lp567
(lp568
F-5.859042668260386
aF0.6984249252669896
aF3.0629655461248655
aF7.581265180672515
aF-0.4368952581323583
aa(lp569
F-9.94762038292027
aF8.988318433034854
aF-6.712526054409724
aF-1.856783960197435
aF-8.870432482269873
aa(lp570
F-4.088577714659889
aF8.289893507767859
aF-9.7754916005346
aF-9.438049140869953
aF-8.433537224137515
aa(lp571
F5.8590426682603844
aF-0.6984249252669884
aF-3.062965546124867
aF-7.5812651806725215
aF0.4368952581323571
aa(lp572
F9.94762038292027
aF-8.988318433034848
aF6.712526054409723
aF1.8567839601974336
aF8.870432482269873
aa(lp573
F4.088577714659874
aF-8.28989350776786
aF9.775491600534597
aF9.438049140869953
aF8.433537224137506
aasg30
(lp574
F5.108806675432921
aF1.4111179578429762
aF4.171511062407274
aF3.622375880132552
aF4.526514648936519
asg32
(lp575
g35
ag34
ag37
ag35
ag36
asg38
I10
sg39
F353.84411671628055
sg40
F921.6040995079474
sg41
g36
sg42
I52
sg43
F24.680599131070423
sba(ibiiots
Biot
p576
(dp577
g3
(lp578
(lp579
F10.561715947141817
aF0.19657935537896976
aF6.101729443793724
aF10.978483015434144
aF-4.295940795614019
aa(lp580
F6.11474357830523
aF7.22012306983186
aF10.557332059554197
aF7.967970500855034
aF3.2182719395482486
aa(lp581
F-1.193385268625463
aF10.865290957180697
aF10.073041672972927
aF1.2291560347977344
aF9.226619467087362
aa(lp582
F-7.943115885366396
aF9.426468451406453
aF4.875463138219418
aF-6.084794200489107
aF10.917729203523072
aa(lp583
F-10.976174301444559
aF3.576896593691838
aF-2.6033987836441237
aF-10.55160160441227
aF7.500312108585905
aa(lp584
F-8.873358775287478
aF-3.9463449329887728
aF-8.864101481085996
aF-10.08119734964152
aF0.5734156213573744
aa(lp585
F-2.618600061775419
aF-9.623047806785422
aF-10.977192582013144
aF-4.893688814945043
aF-6.6217884079090545
aa(lp586
F4.86143072313932
aF-10.797019663523702
aF-7.953933275910061
aF2.583631103557226
aF-10.718584048134154
aa(lp587
F10.066744043912935
aF-6.918946024191929
aF-1.2089401918869298
aF8.852041314843774
aF-9.800035088444735
aasg14
I9
sg15
F-1.9681156233701702
sg16
F8.66546910229507
sg17
F3.0
sg18
I3901
sg19
(lp588
(lp589
F-3.074110644054674
aF10.998243339599227
aF9.152535047446731
aF-0.6876850149770847
aF10.126445214416517
aa(lp590
F-9.143845524262478
aF8.298784420412531
aF3.0891325294181144
aF-7.583630139814571
aF10.518684600420166
aa(lp591
F-10.935073461144544
aF1.7162320401995073
aF-4.4197094310091005
aF-10.931110439572016
aF5.989114559729554
aa(lp592
F-7.609658995752701
aF-5.669364385417365
aF-9.860520229068225
aF-9.163802678893415
aF-1.3428287450525778
aa(lp593
F-0.7236005143088537
aF-10.402202207130744
aF-10.687484024470882
aF-3.1086498004381937
aF-8.046447556145486
aa(lp594
F6.50103868970403
aF-10.26773400852758
aF-6.5136552666693275
aF4.401074868436209
aF-10.98504412941447
aa(lp595
F10.683769639807373
aF-5.328878954181853
aF0.7079851816214874
aF9.851487693870494
aF-8.78361646936393
aa(lp596
F9.867446038571334
aF2.1034177867182073
aF7.598351495052768
aF10.692279940252766
aF-2.4722370442746877
aa(lp597
F4.434034771440505
aF8.551501968328061
aF10.933364697678405
aF6.530035571135803
aF4.995929569684904
aasg30
(lp598
F0.6212836748697392
aF5.068308006738018
aF5.638441789605181
aF0.40060483879604586
aF4.649218023628158
asg32
(lp599
g35
ag35
ag35
ag36
ag35
asg38
I11
sg39
F657.6238005528425
sg40
F951.8932856097576
sg41
g35
sg42
I57
sg43
F35.45871371504011
sba(ibiiots
Biot
p600
(dp601
g3
(lp602
(lp603
F9.534207442577461
aF-5.066382161789816
aF-5.794767505491787
aF9.99796484889356
aF-4.634524693066861
aa(lp604
F2.15479318625936
aF4.933322753755331
aF-9.955393540779088
aF4.824270775674884
aF-9.991302068349778
aa(lp605
F-7.379414256318103
aF9.99970491554515
aF-4.160626035287307
aF-5.173694073218695
aF-5.35677737528291
aa(lp606
F-9.534207442577456
aF5.06638216178981
aF5.7947675054918
aF-9.99796484889356
aF4.634524693066876
aa(lp607
F-2.1547931862593614
aF-4.933322753755329
aF9.955393540779088
aF-4.824270775674885
aF9.991302068349778
aa(lp608
F7.3794142563181016
aF-9.99970491554515
aF4.160626035287308
aF5.1736940732186945
aF5.356777375282911
aasg14
I6
sg15
F-18.70577240896174
sg16
F6.382235077629986
sg17
F3.0
sg18
I788
sg19
(lp609
(lp610
F-3.0164363812121984
aF8.621587544686765
aF-8.149887702127955
aF-0.2017396348980471
aF-8.8612177983251
aa(lp611
F-9.765084040828846
aF8.698409429733687
aF0.9434720177164964
aF-8.759361362734685
aF-0.41699278050036476
aa(lp612
F-6.748647659616639
aF0.076821885046919
aF9.093359719844443
aF-8.55762172783664
aF8.444225017824735
aa(lp613
F3.0164363812122144
aF-8.621587544686767
aF8.149887702127947
aF0.2017396348980459
aF8.861217798325091
aa(lp614
F9.765084040828846
aF-8.698409429733688
aF-0.9434720177164951
aF8.759361362734685
aF0.4169927805003659
aa(lp615
F6.7486476596166405
aF-0.07682188504692022
aF-9.093359719844443
aF8.55762172783664
aF-8.444225017824735
aasg30
(lp616
F2.897702679197872
aF0.4892091898827961
aF4.780169394444026
aF2.611461888514751
aF4.643970286564345
asg32
(lp617
g37
ag36
ag35
ag34
ag35
asg38
I10
sg39
F200.44589431555028
sg40
F264.463913454894
sg41
g35
sg42
I52
sg43
F12.289502629996734
sba(ibiiots
Biot
p618
(dp619
g3
(lp620
(lp621
F-0.5057597461027009
aF-7.998221782657051
aF5.916369282874718
aF6.989517845163396
aF-3.894765203387947
aa(lp622
F-7.16722404364458
aF-4.145180178219023
aF-1.7052294385572846
aF6.8652158974008195
aF4.10431988668554
aa(lp623
F-6.66146429754188
aF3.8530416044380313
aF-7.621598721432014
aF-0.12430194776259056
aF7.99908509007349
aa(lp624
F0.5057597461027
aF7.998221782657051
aF-5.916369282874718
aF-6.9895178451633955
aF3.894765203387948
aa(lp625
F7.16722404364458
aF4.145180178219024
aF1.7052294385572837
aF-6.8652158974008195
aF-4.104319886685546
aa(lp626
F6.661464297541884
aF-3.8530416044380305
aF7.621598721432014
aF0.12430194776258958
aF-7.99908509007349
aasg14
I6
sg15
F6.801281723832375
sg16
F10.121158797325517
sg17
F3.0
sg18
I494
sg19
(lp627
(lp628
F-7.983996936323443
aF-0.16866628421312155
aF-5.384846748855208
aF3.891868483407737
aF6.987904121442884
aa(lp629
F-3.5539976798252173
aF6.842330106776499
aF-7.816149471567033
aF-4.1071657724122925
aF6.866917668631071
aa(lp630
F4.42999925649823
aF7.010996390989629
aF-2.4313027227118145
aF-7.999034255820038
aF-0.12098645281181557
aa(lp631
F7.983996936323443
aF0.16866628421312252
aF5.384846748855207
aF-3.891868483407738
aF-6.987904121442884
aa(lp632
F3.553997679825218
aF-6.842330106776499
aF7.816149471567033
aF4.107165772412292
aF-6.866917668631069
aa(lp633
F-4.429999256498223
aF-7.01099639098963
aF2.4313027227118154
aF7.999034255820038
aF0.12098645281180749
aasg30
(lp634
F0.5164160130022484
aF2.0028653352828543
aF5.903943302146657
aF4.65748242977996
aF3.08627161740315
asg32
(lp635
g34
ag35
ag34
ag36
ag35
asg38
I8
sg39
F358.56837979364536
sg40
F216.7618953153825
sg41
g34
sg42
I42
sg43
F13.782594578178607
sba(ibiiots
Biot
p636
(dp637
g3
(lp638
(lp639
F-7.0121384115256475
aF-5.752909987547365
aF10.99966546645457
aF7.301380675131345
aF-8.812017325301433
aa(lp640
F-10.951239551869792
aF2.5617097994296456
aF7.838599504702185
aF10.980494493827475
aF-1.5754840355159216
aa(lp641
F-8.475253087525267
aF9.37571472876483
aF0.08578826310629699
aF8.227383559602563
aF6.583946434972521
aa(lp642
F-1.0345783090528893
aF10.69755312693076
aF-7.717276579524842
aF0.654782919007913
aF10.88659037779205
aa(lp643
F7.012138411525647
aF5.7529099875473655
aF-10.99966546645457
aF-7.301380675131344
aF8.812017325301433
aa(lp644
F10.95123955186979
aF-2.561709799429635
aF-7.838599504702186
aF-10.980494493827475
aF1.575484035515913
aa(lp645
F8.475253087525267
aF-9.37571472876483
aF-0.08578826310629833
aF-8.227383559602565
aF-6.58394643497252
aa(lp646
F1.0345783090529006
aF-10.69755312693076
aF7.717276579524842
aF-0.6547829190079143
aF-10.886590377792048
aasg14
I8
sg15
F5.034409894651256
sg16
F10.220035858983934
sg17
F3.0
sg18
I1198
sg19
(lp647
(lp648
F-8.475253087525267
aF9.375714728764832
aF0.08578826310628655
aF8.227383559602563
aF6.583946434972521
aa(lp649
F-1.0345783090528888
aF10.697553126930762
aF-7.717276579524843
aF0.6547829190079025
aF10.88659037779205
aa(lp650
F7.0121384115256475
aF5.7529099875473655
aF-10.99966546645457
aF-7.301380675131345
aF8.812017325301433
aa(lp651
F10.951239551869792
aF-2.5617097994296545
aF-7.838599504702185
aF-10.980494493827473
aF1.5754840355159223
aa(lp652
F8.475253087525267
aF-9.37571472876483
aF-0.08578826310627813
aF-8.227383559602565
aF-6.583946434972521
aa(lp653
F1.0345783090528902
aF-10.697553126930766
aF7.717276579524842
aF-0.6547829190078942
aF-10.886590377792052
aa(lp654
F-7.012138411525647
aF-5.7529099875473655
aF10.99966546645457
aF7.301380675131344
aF-8.812017325301433
aa(lp655
F-10.95123955186979
aF2.561709799429653
aF7.838599504702186
aF10.980494493827473
aF-1.5754840355159332
aasg30
(lp656
F1.0454831664937767
aF2.945512131209841
aF5.058866762919397
aF4.221706682487551
aF2.5667512067114986
asg32
(lp657
g35
ag35
ag35
ag37
ag35
asg38
I11
sg39
F559.8112791738964
sg40
F296.7571220562936
sg41
g35
sg42
I55
sg43
F16.133686341614734
sba(ibiiots
Biot
p658
(dp659
g3
(lp660
(lp661
F6.801687960818288
aF-6.9415184479794085
aF7.8314044471525905
aF1.4914483292453111
aF7.47251140279824
aa(lp662
F7.7875257991105755
aF-2.0963384336150837
aF4.3824109914521925
aF-4.503065329390601
aF7.3039591929285805
aa(lp663
F4.211536641614265
aF3.9768482038369966
aF-1.6337393871479697
aF-7.859744390321569
aF2.8568467468609997
aa(lp664
F-1.8315135621084389
aF7.720451098980438
aF-6.69286739013997
aF-6.612291784188014
aF-3.263767777896289
aa(lp665
F-6.801687960818287
aF6.9415184479794085
aF-7.831404447152588
aF-1.4914483292453051
aF-7.47251140279824
aa(lp666
F-7.7875257991105755
aF2.0963384336150845
aF-4.382410991452205
aF4.503065329390601
aF-7.3039591929285805
aa(lp667
F-4.211536641614254
aF-3.9768482038369957
aF1.6337393871479688
aF7.85974439032157
aF-2.8568467468610006
aa(lp668
F1.831513562108438
aF-7.720451098980438
aF6.692867390139969
aF6.612291784188015
aF3.263767777896288
aasg14
I8
sg15
F10.868971192100869
sg16
F9.461923731829387
sg17
F3.0
sg18
F956.0
sg19
(lp669
(lp670
F4.2115366416142646
aF3.976848203836997
aF-1.6337393871479702
aF-7.859744390321569
aF2.8568467468609993
aa(lp671
F-1.8315135621084533
aF7.720451098980439
aF-6.69286739013997
aF-6.612291784188014
aF-3.2637677778962892
aa(lp672
F-6.801687960818287
aF6.9415184479794085
aF-7.8314044471525905
aF-1.4914483292453116
aF-7.47251140279824
aa(lp673
F-7.787525799110579
aF2.096338433615084
aF-4.3824109914521925
aF4.503065329390601
aF-7.3039591929285805
aa(lp674
F-4.211536641614265
aF-3.976848203836996
aF1.6337393871479833
aF7.85974439032157
aF-2.856846746861
aa(lp675
F1.8315135621084522
aF-7.720451098980438
aF6.692867390139962
aF6.612291784188015
aF3.2637677778962884
aa(lp676
F6.8016879608182945
aF-6.9415184479794085
aF7.8314044471525905
aF1.4914483292453056
aF7.47251140279824
aa(lp677
F7.787525799110579
aF-2.096338433615085
aF4.382410991452193
aF-4.5030653293906004
aF7.3039591929285805
aasg30
(lp678
F5.270367534067753
aF3.2034455613934014
aF6.030442118626268
aF0.9248606823495888
aF5.459610307763363
asg32
(lp679
g36
ag35
ag36
ag35
ag37
asg38
I8
sg39
F573.6720169771264
sg40
F802.1033426995097
sg41
g37
sg42
I41
sg43
F16.727663430598586
sba(ibiiots
Biot
p680
(dp681
g3
(lp682
(lp683
F9.990430770914948
aF3.2191049042995297
aF-7.914729611268173
aF5.235783764808462
aF-9.610630954848846
aa(lp684
F-5.373989406038082
aF6.589717192845209
aF-1.3358186774303387
aF-9.996233584719603
aF7.198394976161532
aa(lp685
F-4.616441364876861
aF-9.80882209714474
aF9.250548288698516
aF4.760449819911136
aF2.4122359786873044
aasg14
I3
sg15
F-12.688564946746588
sg16
F8.842907310205037
sg17
F3.0
sg18
I594
sg19
(lp686
(lp687
F-0.4373705654885075
aF9.467701073392353
aF-6.112041817634656
aF-8.519775136009644
aF2.763290185576095
aa(lp688
F-8.43328155961785
aF-7.521677161266645
aF9.910377816260501
aF-0.2744341810414424
aF6.941405460508154
aa(lp689
F8.870652125106353
aF-1.9460239121257144
aF-3.7983359986258405
aF8.79420931705108
aF-9.704695646084245
aasg30
(lp690
F0.20436002947826426
aF5.200744697064763
aF2.644620527434945
aF1.1803597037197386
aF3.5821739611639885
asg32
(lp691
g36
ag34
ag34
ag35
ag35
asg38
I10
sg39
F343.8655642645184
sg40
F853.3891686000117
sg41
g34
sg42
I54
sg43
F16.001209386691496
sba(ibiiots
Biot
p692
(dp693
g3
(lp694
(lp695
F9.735976540505977
aF-1.617224559227334
aF7.7942829376159475
aF-7.125873798346437
aF8.655898754053293
aa(lp696
F0.8375968502623831
aF8.88562089153783
aF8.36685363046869
aF4.470438261215895
aF-2.0876299237792053
aa(lp697
F-9.218313218173968
aF7.10884028134385
aF-2.623283015090843
aF9.888756588385842
aF-9.946125002880194
aa(lp698
F-6.534827738036321
aF-4.492115977072968
aF-9.988131695905135
aF1.641149416881019
aF-4.059413384355902
aa(lp699
F5.179567565441927
aF-9.885120636581387
aF-3.5497218570886595
aF-8.874470468136304
aF7.437269556962008
aasg14
I5
sg15
F-32.542086829232
sg16
F8.343468694546331
sg17
F3.0
sg18
I693
sg19
(lp700
(lp701
F-2.2827090928800526
aF9.868362818878923
aF6.264914483725131
aF7.015833707410668
aF-5.007535996833036
aa(lp702
F-9.964859834259112
aF4.587563773057163
aF-5.476838533890962
aF8.945120555512766
aF-9.779662637399188
aa(lp703
F-3.8759129778207235
aF-7.033092481571893
aF-9.64978684856489
aF-1.4874451706384284
aF-1.0366279115871007
aa(lp704
F7.5694138765290875
aF-8.934253972689929
aF-0.4870577227138744
aF-9.864412227369206
aF9.138991354351537
aa(lp705
F8.5540680284308
aF1.5114198623257413
aF9.348768621444593
aF-4.609096864915798
aF6.684835191467786
aasg30
(lp706
F0.8903489634942978
aF5.2100007760555584
aF6.266189358789805
aF4.579257361267894
aF1.1845168086165918
asg32
(lp707
g36
ag36
ag35
ag35
ag36
asg38
I10
sg39
F383.9980050396795
sg40
F1130.7667656393219
sg41
g36
sg42
I52
sg43
F23.57464667958027
sba(ibiiots
Biot
p708
(dp709
g3
(lp710
(lp711
F8.346303902813275
aF-1.638304519130531
aF-7.635760114285291
aF8.793487016743287
aF-0.5052577652485787
aa(lp712
F8.282821445823348
aF5.099177435144351
aF-2.030680274546223
aF7.573402131666328
aF5.996653366462771
aa(lp713
F3.367374520584827
aF8.849630404858527
aF4.7639445291785
aF1.916920991164552
aF8.985806284950506
aa(lp714
F-3.520634729222676
aF7.41608990539588
aF8.767915238103575
aF-4.862466467963754
aF6.711195750571632
aa(lp715
F-8.346303902813275
aF1.638304519130524
aF7.635760114285291
aF-8.793487016743288
aF0.5052577652485719
aa(lp716
F-8.282821445823348
aF-5.099177435144351
aF2.0306802745462242
aF-7.573402131666329
aF-5.99665336646277
aa(lp717
F-3.367374520584843
aF-8.849630404858523
aF-4.763944529178499
aF-1.9169209911645528
aF-8.985806284950504
aa(lp718
F3.520634729222675
aF-7.416089905395881
aF-8.767915238103575
aF4.862466467963753
aF-6.711195750571632
aasg14
I8
sg15
F0.5303014319452428
sg16
F6.869489164773892
sg17
F3.0
sg18
F1699.0
sg19
(lp719
(lp720
F3.3673745205848267
aF8.849630404858527
aF4.763944529178514
aF1.9169209911645433
aF8.985806284950506
aa(lp721
F-3.5206347292226763
aF7.41608990539588
aF8.767915238103575
aF-4.862466467963755
aF6.7111957505716315
aa(lp722
F-8.346303902813275
aF1.6383045191305317
aF7.6357601142853
aF-8.793487016743285
aF0.5052577652485792
aa(lp723
F-8.282821445823348
aF-5.099177435144351
aF2.0306802745462234
aF-7.573402131666329
aF-5.99665336646277
aa(lp724
F-3.3673745205848276
aF-8.849630404858527
aF-4.763944529178513
aF-1.9169209911645366
aF-8.985806284950506
aa(lp725
F3.5206347292226754
aF-7.41608990539588
aF-8.767915238103575
aF4.862466467963754
aF-6.711195750571632
aa(lp726
F8.346303902813268
aF-1.6383045191305405
aF-7.6357601142853
aF8.793487016743285
aF-0.5052577652485883
aa(lp727
F8.282821445823348
aF5.09917743514435
aF-2.0306802745462247
aF7.573402131666329
aF5.996653366462768
aasg30
(lp728
F1.720549498768398
aF0.35018169191701
aF5.803432450765605
aF1.8893970561968096
aF0.47706685979886215
asg32
(lp729
g35
ag35
ag37
ag34
ag37
asg38
I9
sg39
F404.43753108159115
sg40
F888.8280959359973
sg41
g37
sg42
I48
sg43
F28.838792014772167
sba(ibiiots
Biot
p730
(dp731
g3
(lp732
(lp733
F6.047474386012419
aF10.019095677867275
aF-0.40053551112445746
aF2.990821599482495
aF-3.4902966386962118
aa(lp734
F10.538871356020575
aF10.593761656687821
aF-7.372802809956527
aF-4.513192039707171
aF-9.37901173484159
aa(lp735
F10.099013292038238
aF6.211488819797933
aF-10.895253734433911
aF-9.905432964975462
aF-10.879183004149962
aa(lp736
F4.933714670680609
aF-1.0772086688840867
aF-9.31969434931226
aF-10.662811719306823
aF-7.288863637165428
aa(lp737
F-2.5401238772193233
aF-7.861868249554428
aF-3.383346401282072
aF-6.430942366222348
aF-0.2880039676551537
aa(lp738
F-8.825410232636
aF-10.967872301325304
aF4.136106929614799
aF0.8100363919807283
aF6.847615959128531
aa(lp739
F-10.981189056693026
aF-8.941887008983189
aF9.72022986043671
aF7.671990119824323
aF10.779160275861635
aa(lp740
F-7.998747478801256
aF-2.7318934071333967
aF10.7561492112386
aF10.944134405929521
aF9.667015702496743
aa(lp741
F-1.2736030594022472
aF4.756383481527369
aF6.7591468048191015
aF9.095396572994725
aF4.031567045021439
aasg14
I9
sg15
F19.726101599413667
sg16
F7.601786487810914
sg17
F3.0
sg18
I3114
sg19
(lp742
(lp743
F9.188473951126145
aF4.540674156746032
aF-10.99270536784864
aF-10.585602777360814
aF-10.43157846991077
aa(lp744
F3.1515378057781676
aF-2.961792356207794
aF-8.163441598094344
aF-10.031505251592296
aF-5.74753328635022
aa(lp745
F-4.360037904334661
aF-9.078403309036524
aF-1.5144127780443244
aF-4.783554930841435
aF1.6258465986108943
aa(lp746
F-9.831503422585527
aF-10.947128458352948
aF5.8432266116758775
aF2.702673905341351
aF8.23847479080974
aa(lp747
F-10.702699224419057
aF-7.693570538225279
aF10.466755329562819
aF8.924291584340267
aF10.996229067940286
aa(lp748
F-6.565983111894501
aF-0.8401054587497762
aF10.192772903719206
aF10.970134048573282
aF8.60872555470833
aa(lp749
F0.6430294714593733
aF6.40645430160691
aF5.149478756172758
aF7.882928872019459
aF2.193103679101039
aa(lp750
F7.551161418640881
aF10.65536289443307
aF-2.303313731468468
aF1.1072136672520365
aF-5.24869578159007
aa(lp751
F10.926021016229159
aF9.918508767786294
aF-8.678360125674882
aF-6.186579117731852
aF-10.234572153319215
aasg30
(lp752
F0.41302285756514256
aF0.9762163236654303
aF3.00894653603139
aF2.6971667058690034
aF3.2954068450348593
asg32
(lp753
g35
ag37
ag37
ag35
ag35
asg38
I11
sg39
F590.1248979874366
sg40
F707.4525261828903
sg41
g35
sg42
I57
sg43
F23.753103541393934
sba(ibiiots
Biot
p754
(dp755
g3
(lp756
(lp757
F2.186731591059127
aF-9.987342259572781
aF6.043629085656082
aF7.313664665810614
aF-6.276197404219653
aa(lp758
F-7.357294161627509
aF-5.429269502847809
aF9.921518203584704
aF9.56299283420012
aF3.6040826665163412
aa(lp759
F-9.54402575268664
aF4.558072756724968
aF3.877889117928626
aF2.2493281683895026
aF9.880280070735996
aa(lp760
F-2.1867315910591283
aF9.987342259572781
aF-6.0436290856560815
aF-7.313664665810608
aF6.276197404219655
aa(lp761
F7.357294161627507
aF5.42926950284781
aF-9.921518203584702
aF-9.56299283420012
aF-3.604082666516332
aa(lp762
F9.544025752686636
aF-4.558072756724974
aF-3.8778891179286274
aF-2.249328168389504
aF-9.880280070736
aasg14
I6
sg15
F18.13039998117144
sg16
F8.514030135172481
sg17
F3.0
sg18
I3295
sg19
(lp763
(lp764
F-9.757981602189258
aF-0.5029856758911523
aF7.9670915317330095
aF6.81984671059939
aF7.7852004562031984
aa(lp765
F-6.772755910209799
aF8.39779927513433
aF-1.2503905533621782
aF-2.923896040052921
aF9.327946619321771
aa(lp766
F2.9852256919794535
aF8.90078495102548
aF-9.217482085095188
aF-9.743742750652315
aF1.5427461631185784
aa(lp767
F9.757981602189256
aF0.5029856758911534
aF-7.96709153173301
aF-6.819846710599396
aF-7.785200456203198
aa(lp768
F6.7727559102098
aF-8.39779927513433
aF1.250390553362186
aF2.9238960400529197
aF-9.327946619321775
aa(lp769
F-2.9852256919794695
aF-8.900784951025477
aF9.217482085095188
aF9.743742750652315
aF-1.5427461631185622
aasg30
(lp770
F1.8398280049009585
aF3.5807590446654136
aF5.850841142950189
aF6.02219863763045
aF4.523383158421815
asg32
(lp771
g35
ag36
ag35
ag37
ag35
asg38
I10
sg39
F524.7835488089639
sg40
F756.8429963493909
sg41
g36
sg42
I54
sg43
F12.889413341326641
sba(ibiiots
Biot
p772
(dp773
g3
(lp774
(lp775
F-7.88448659935791
aF2.4517915953156035
aF-5.794307039688587
aF0.054382714219060414
aF-6.734066361754993
aa(lp776
F-4.3399160204485
aF8.659602645222225
aF-6.886654189794584
aF8.999835694077653
aF5.9709589041861495
aa(lp777
F7.884486599357913
aF-2.451791595315618
aF5.7943070396885865
aF-0.054382714219059304
aF6.734066361754988
aa(lp778
F4.339916020448494
aF-8.659602645222227
aF6.8866541897945845
aF-8.999835694077653
aF-5.970958904186155
aasg14
I4
sg15
F-2.829557837210843
sg16
F9.475315500899244
sg17
F3.0
sg18
I2022
sg19
(lp779
(lp780
F-4.3399160204484994
aF8.659602645222225
aF-6.886654189794584
aF8.999835694077653
aF5.9709589041861495
aa(lp781
F7.884486599357909
aF-2.451791595315603
aF5.7943070396885865
aF-0.05438271421905986
aF6.734066361754993
aa(lp782
F4.339916020448493
aF-8.659602645222222
aF6.8866541897945845
aF-8.999835694077653
aF-5.970958904186155
aa(lp783
F-7.884486599357913
aF2.451791595315602
aF-5.794307039688585
aF0.054382714219058756
aF-6.734066361754989
aasg30
(lp784
F2.1666145424537517
aF4.516498410527553
aF1.7984667121190197
aF4.246632366854152
aF3.3952002806791426
asg32
(lp785
g37
ag35
ag37
ag35
ag36
asg38
I9
sg39
F463.1352336341255
sg40
F471.516820505478
sg41
g36
sg42
I46
sg43
F21.78312001335965
sba(ibiiots
Biot
p786
(dp787
g3
(lp788
(lp789
F8.939378595262644
aF-8.736224897081945
aF0.017242149522030157
aF-6.366935977565993
aF-8.989247031703576
aa(lp790
F3.754217432192372
aF-4.756734454478677
aF8.564821056017848
aF4.082164522642576
aF-2.359540562748033
aa(lp791
F-6.619144621010404
aF5.796401328756433
aF5.276108370657761
aF8.889852400228095
aF7.5309707660912375
aa(lp792
F-7.845073784427844
aF8.339107488085206
aF-5.304006754623525
aF1.4120664156682214
aF7.013936464474252
aa(lp793
F1.770622377983231
aF-0.6425494652810155
aF-8.554164821574124
aF-8.017147360972897
aF-3.19611963611388
aasg14
I5
sg15
F18.74336734572664
sg16
F9.218328690992166
sg17
F3.0
sg18
F2502.0
sg19
(lp794
(lp795
F1.0428376338433836
aF-2.162955049834731
aF8.999983483778172
aF6.360984692449414
aF0.43981564661622213
aa(lp796
F-8.17959971342259
aF7.640253747721697
aF2.764749586923437
aF8.02096832122396
aF8.685192475284971
aa(lp797
F-6.098108271107445
aF6.884891548600505
aF-7.29127426867726
aF-1.403753647246821
aF4.927928501944723
aa(lp798
F4.41076153480133
aF-3.385156761829686
aF-7.271004906263509
aF-8.888535787054124
aF-5.63956516695378
aa(lp799
F8.82410881588532
aF-8.977033484657785
aF2.7975461042391667
aF-4.089663579372427
aF-8.413371456892135
aasg30
(lp800
F5.952241234269518
aF2.684076200018659
aF4.499492411750894
aF3.711710875655077
aF2.97566816611575
asg32
(lp801
g35
ag37
ag37
ag35
ag37
asg38
I9
sg39
F546.504742693729
sg40
F655.1907962177285
sg41
g37
sg42
I47
sg43
F21.08587250150065
sba(ibiiots
Biot
p802
(dp803
g3
(lp804
(lp805
F6.670143989359927
aF7.396654614525392
aF-1.8188441735671845
aF8.9517466821782
aF9.269743374397464
aa(lp806
F9.983761756495053
aF-0.6497896922341186
aF-8.821935476100439
aF2.0965786074313204
aF8.712433850328905
aa(lp807
F5.779403289363883
aF-8.206929107447188
aF-9.181929430441606
aF-6.337355921120974
aF1.5944839357003189
aa(lp808
F-2.7769637330006507
aF-9.584083513907723
aF-2.627743246433383
aF-9.999132182567298
aF-6.7241449040554535
aa(lp809
F-9.242220424678813
aF-3.7442275547205734
aF5.9051871983328414
aF-6.131357965415379
aF-9.979355483498216
aa(lp810
F-8.747896629634816
aF4.915108121494241
aF9.991391238887946
aF2.353453856603692
aF-5.719907842112897
aa(lp811
F-1.6662282479045765
aF9.873267132289968
aF6.553873889321823
aF9.066066922890396
aF2.8467470692398433
aasg14
I7
sg15
F-7.9502131753488605
sg16
F6.282463987930496
sg17
F3.0
sg18
I3444
sg19
(lp812
(lp813
F7.4504482523674795
aF-6.72974743310774
aF-9.833199167731767
aF-4.457155072253103
aF3.7512474955425565
aa(lp814
F-0.569650058849142
aF-9.978866336206046
aF-4.708869764128172
aF-9.777748112058386
aF-4.908512646784468
aa(lp815
F-8.16079025700881
aF-5.713695356364049
aF3.961334615302055
aF-7.735497393770676
aF-9.872062650672028
aa(lp816
F-9.60668894185708
aF2.854004764964873
aF9.648573232909815
aF0.13174063741672917
aF-7.401748125224545
aa(lp817
F-3.818554912745104
aF9.272581087187708
aF8.070239411110796
aF7.899775281610065
aF0.6422337066630011
aa(lp818
F4.845028849988802
aF8.708714724574536
aF0.41485070986221606
aF9.719118012702449
aF8.202600458253187
aa(lp819
F9.860207068103836
aF1.5870085489507173
aF-7.5529290373249
aF4.219766646352932
aF9.586241762222272
aasg30
(lp820
F1.8504556046660612
aF3.429280854557145
aF4.444756468506271
aF3.153031041401343
aF2.3065262980735164
asg32
(lp821
g35
ag35
ag35
ag34
ag35
asg38
I10
sg39
F529.0881301742389
sg40
F894.9861363727919
sg41
g35
sg42
I51
sg43
F32.012312354023535
sba(ibiiots
Biot
p822
(dp823
g3
(lp824
(lp825
F-0.755006168360933
aF-3.3800083029015155
aF-4.971346885424819
aF6.625040917815285
aF7.948900116086826
aa(lp826
F7.389251338633648
aF-8.913691430412772
aF-8.982925370149324
aF-1.9630481955555854
aF7.629753083560747
aa(lp827
F8.14425750699459
aF-5.53368312751126
aF-4.01157848472451
aF-8.58808911337087
aF-0.3191470325260785
aa(lp828
F0.7550061683609341
aF3.3800083029015147
aF4.971346885424818
aF-6.625040917815285
aF-7.948900116086826
aa(lp829
F-7.389251338633647
aF8.913691430412772
aF8.982925370149324
aF1.9630481955555845
aF-7.629753083560748
aa(lp830
F-8.14425750699459
aF5.533683127511261
aF4.011578484724511
aF8.588089113370868
aF0.3191470325260774
aasg14
I6
sg15
F-6.349398049935603
sg16
F12.213041090288828
sg17
F3.0
sg18
I1879
sg19
(lp831
(lp832
F8.968275513482897
aF-8.341195590100787
aF-7.502380298597035
aF-6.091701965565387
aF4.2207803715041665
aa(lp833
F5.137992278555977
aF-1.2434247397353484
aF0.5541225445040123
aF-8.783304718722103
aF-4.773559246924172
aa(lp834
F-3.8302832349269247
aF7.09777085036543
aF8.056502843101056
aF-2.691602753156707
aF-8.994339618428347
aa(lp835
F-8.968275513482897
aF8.341195590100789
aF7.502380298597036
aF6.091701965565386
aF-4.220780371504167
aa(lp836
F-5.137992278555978
aF1.2434247397353493
aF-0.5541225445040112
aF8.783304718722103
aF4.7735592469241706
aa(lp837
F3.830283234926924
aF-7.097770850365429
aF-8.056502843101056
aF2.691602753156708
aF8.994339618428347
aasg30
(lp838
F1.4188759347844582
aF5.029454001846456
aF5.229663783218225
aF3.817143369148869
aF2.5855299854817013
asg32
(lp839
g37
ag34
ag35
ag35
ag37
asg38
I9
sg39
F250.97575625004538
sg40
F706.112997366215
sg41
g35
sg42
I49
sg43
F13.202276350166539
sba(ibiiots
Biot
p840
(dp841
g3
(lp842
(lp843
F-3.195620060249003
aF3.592992494953717
aF-5.8818523318537475
aF8.482691593721247
aF-3.890014251952258
aa(lp844
F8.413561221654845
aF8.251691034642915
aF6.812034435193838
aF3.0073149695053454
aF-8.115897308345412
aa(lp845
F3.1956200602490044
aF-3.592992494953716
aF5.881852331853748
aF-8.482691593721249
aF3.8900142519522607
aa(lp846
F-8.413561221654843
aF-8.251691034642915
aF-6.812034435193838
aF-3.007314969505331
aF8.115897308345408
aasg14
I4
sg15
F3.0639060182836824
sg16
F10.944947794170748
sg17
F3.0
sg18
F40.0
sg19
(lp847
(lp848
F8.413561221654845
aF8.251691034642915
aF6.812034435193839
aF3.007314969505337
aF-8.115897308345412
aa(lp849
F3.195620060249004
aF-3.5929924949537164
aF5.8818523318537475
aF-8.482691593721244
aF3.8900142519522616
aa(lp850
F-8.413561221654845
aF-8.251691034642915
aF-6.812034435193838
aF-3.0073149695053303
aF8.115897308345412
aa(lp851
F-3.195620060249005
aF3.5929924949537155
aF-5.881852331853748
aF8.482691593721249
aF-3.8900142519522674
aasg30
(lp852
F2.4079697490531182
aF3.1816249814243713
aF2.0587065695012585
aF4.0010547214029
aF0.07632223847636839
asg32
(lp853
g37
ag36
ag35
ag37
ag34
asg38
I9
sg39
F361.4157508737394
sg40
F594.244615381439
sg41
g37
sg42
I45
sg43
F26.65376893647776
sba(ibiiots
Biot
p854
(dp855
g3
(lp856
(lp857
F6.314539612340131
aF-6.424537883706281
aF-4.935144588190974
aF2.816965247917853
aF-4.28278229404691
aa(lp858
F-4.643046989521029
aF-10.944925971336417
aF6.046137879514896
aF-7.800129111477496
aF-10.91597557401193
aa(lp859
F-10.957586601861156
aF-4.520388087630123
aF10.981282467705874
aF-10.617094359395342
aF-6.633193279965014
aa(lp860
F-6.314539612340117
aF6.4245378837062805
aF4.935144588190967
aF-2.816965247917836
aF4.282782294046908
aa(lp861
F4.643046989521028
aF10.944925971336417
aF-6.0461378795148955
aF7.800129111477495
aF10.91597557401193
aa(lp862
F10.957586601861156
aF4.520388087630125
aF-10.981282467705874
aF10.617094359395344
aF6.633193279965015
aasg14
I6
sg15
F12.423460357027327
sg16
F6.704484275012707
sg17
F3.0
sg18
F748.0
sg19
(lp863
(lp864
F-9.007030003513218
aF-8.928903235046443
aF9.830785721072825
aF-10.633188928633926
aF-10.132017361897793
aa(lp865
F-9.972066719246302
aF1.0993613973419214
aF9.18935344525909
aF-7.756157930591749
aF-1.3570104154260902
aa(lp866
F-0.9650367157330736
aF10.028264632388382
aF-0.641432275813739
aF2.877030998042185
aF8.775006946471724
aa(lp867
F9.00703000351323
aF8.928903235046443
aF-9.830785721072829
aF10.633188928633931
aF10.132017361897793
aa(lp868
F9.972066719246303
aF-1.0993613973419198
aF-9.18935344525909
aF7.75615793059175
aF1.3570104154260916
aa(lp869
F0.965036715733075
aF-10.028264632388382
aF0.6414322758137376
aF-2.8770309980421835
aF-8.775006946471722
aasg30
(lp870
F3.2283913692841177
aF4.4635415354314185
aF0.2329873786319222
aF3.580860876283518
aF4.239752804987735
asg32
(lp871
g36
ag36
ag35
ag35
ag37
asg38
I11
sg39
F244.26169510760673
sg40
F1109.3075833109065
sg41
g37
sg42
I55
sg43
F29.595437619566205
sba(ibiiots
Biot
p872
(dp873
g3
(lp874
(lp875
F-9.93137122988898
aF10.190919284088695
aF-7.280841251585359
aF-5.278915222196863
aF10.576534029784941
aa(lp876
F-4.5678284529918525
aF5.14512446667518
aF-10.877595330184015
aF-10.24713559931288
aF6.159118405395218
aa(lp877
F2.933052022818647
aF-2.3081312703846595
aF-9.384601662783458
aF-10.420607345283722
aF-1.1402171718552878
aa(lp878
F9.061524859910056
aF-8.681386734009811
aF-3.500448579136764
aF-5.718161102245925
aF-7.906032462292377
aa(lp879
F10.950009507418503
aF-10.9925248619254
aF4.021603297840579
aF1.659876270814572
aF-10.972527297859365
aa(lp880
F7.714863010605785
aF-8.160138438640514
aF9.661902296616226
aF8.26123908929102
aF-8.904854664700544
aa(lp881
F0.8698463699789291
aF-1.5095325500788888
aF10.781289830722127
aF10.997076324442782
aF-2.6705015674925665
aa(lp882
F-6.3821810544266535
aF5.847400395250215
aF6.855992032343451
aF8.587259328498316
aF4.813408892464139
aa(lp883
F-10.647915033424432
aF10.468269709025174
aF-0.2773006338327617
aF2.159368255992711
aF10.045071836555834
aasg14
I9
sg15
F-5.304502334951007
sg16
F8.06448831134486
sg17
F3.0
sg18
I442
sg19
(lp884
(lp885
F4.729467781276606
aF-4.140671943681265
aF-8.245565515427849
aF-9.65054682786723
aF-3.022735171463275
aa(lp886
F10.00674488652719
aF-9.72253538036352
aF-1.6364350988532705
aF-3.9995264731333715
aF-9.114014508893536
aa(lp887
F10.601754846790197
aF-10.755116458629004
aF5.738401487425042
aF3.522916768165116
aF-10.940745166623996
aa(lp888
F6.2360858888594555
aF-6.7552590160969
aF10.428176242508535
aF9.39694810078047
aF-7.648179568052723
aa(lp889
F-1.0475169628432803
aF0.4054591964081951
aF10.23849143745297
aF10.874042981595515
aF-0.7769457495417956
aa(lp890
F-7.8409749857773825
aF7.3764585447368685
aF5.258102700655636
aF7.26305229979587
aF6.457829619969931
aa(lp891
F-10.965553670136062
aF10.895930959778164
aF-2.182610727080679
aF0.25359872708677117
aF10.670914739515997
aa(lp892
F-8.959227923683908
aF9.317076183955331
aF-8.602056338599692
aF-6.8745165084621505
aF9.890960258435333
aa(lp893
F-2.7607798610128205
aF3.378657913892143
aF-10.996504188080682
aF-10.785969067960977
aF4.4829155466540715
aasg30
(lp894
F4.5250598556405235
aF1.3249621445517625
aF3.233167862410931
aF3.0103666453556115
aF1.217403574167348
asg32
(lp895
g34
ag35
ag36
ag35
ag36
asg38
I11
sg39
F310.6553786581155
sg40
F1023.6192734668663
sg41
g35
sg42
I59
sg43
F21.23295391116451
sba(ibiiots
Biot
p896
(dp897
g3
(lp898
(lp899
F4.107011334381219
aF6.847484534274485
aF1.7802658257608874
aF-7.944783000058082
aF2.0105614323982737
aa(lp900
F7.928193840080434
aF1.0351657932972977
aF7.2077947144062415
aF-4.219891952621401
aF7.307467149247524
aa(lp901
F5.779284678517544
aF-5.556653903566745
aF7.207707170886263
aF2.682663805247718
aF7.101701057548813
aa(lp902
F-0.7215437218921974
aF-7.964199875962073
aF1.780069117257053
aF7.565119001396393
aF1.548209221214609
aa(lp903
F-6.679034982907504
aF-4.374540901687142
aF-4.9879972884593595
aF6.750885289189033
aF-5.17111573640689
aa(lp904
F-7.607076674308899
aF2.509236595930389
aF-7.999999999363906
aF0.8530972612586232
aF-7.996485072976431
aa(lp905
F-2.8068344738705937
aF7.503507757713785
aF-4.9878395404871805
aF-5.687090404412299
aF-4.8003380510259035
aasg14
I7
sg15
F4.973363807626587
sg16
F7.509399237803199
sg17
F3.0
sg18
I884
sg19
(lp906
(lp907
F6.86530828872704
aF-4.13665995132205
aF7.799400848118265
aF0.9383086283244481
aF7.743232059453765
aa(lp908
F1.0694589445652736
aF-7.93274427801547
aF3.4709790196682904
aF6.796507331578561
aF3.2559059972100344
aa(lp909
F-5.531714797840935
aF-5.755310364869688
aF-3.4711608056606575
aF7.536797390670246
aF-3.6831836893114724
aa(lp910
F-7.967394471055011
aF0.7559896399592352
aF-7.799445745550622
aF2.6017252919382625
aF-7.848760934526293
aa(lp911
F-4.403463602335979
aF6.698014026520566
aF-6.254588959341938
aF-4.2924990171473665
aF-6.104061110497259
aa(lp912
F2.476365173229802
aF7.596297236525416
aF0.00010088361476630944
aF-7.954384015298295
aF0.23712122989121587
aa(lp913
F7.491440464709814
aF2.774413691201988
aF6.254714759151901
aF-5.626455610065857
aF6.399746447780008
aasg30
(lp914
F0.46243541094756646
aF2.0375559583624105
aF0.14773284790531693
aF4.753268915149187
aF0.17736473291031388
asg32
(lp915
g35
ag35
ag34
ag34
ag36
asg38
I8
sg39
F289.30237508298393
sg40
F834.3806653965851
sg41
g36
sg42
I41
sg43
F20.37782346365969
sba(ibiiots
Biot
p916
(dp917
g43
F16.133686341614734
sg14
I8
sg3
g638
sg15
F7.531960719707916
sg16
F10.220035858983934
sg42
I55
sg18
I1206
sg19
g647
sg30
g656
sg32
g657
sg39
F559.8112791738964
sg40
F547.0913379103304
sg41
g35
sg17
F3.0
sg38
I11
sba.